
========================================================================

** ELF Header Information

    File Name: .\obj\fmc_ap0_main.axf

    Machine class: ELFCLASS32 (32-bit)
    Data encoding: ELFDATA2LSB (Little endian)
    Header version: EV_CURRENT (Current version)
    Operating System ABI: none
    ABI Version: 0
    File Type: ET_EXEC (Executable) (2)
    Machine: EM_ARM (ARM)

    Image Entry point: 0x0000023d
    Flags: EF_ARM_HASENTRY (0x05000002)

    ARM ELF revision: 5 (ABI version 2)

    Built with
    Component: ARM Compiler 5.04 update 1 (build 49) Tool: armasm [5040049]
    Component: ARM Compiler 5.04 update 1 (build 49) Tool: armlink [5040049]

    Header size: 52 bytes (0x34)
    Program header entry size: 32 bytes (0x20)
    Section header entry size: 40 bytes (0x28)

    Program header entries: 1
    Section header entries: 16

    Program header offset: 821208 (0x000c87d8)
    Section header offset: 821240 (0x000c87f8)

    Section header string table index: 15

========================================================================

** Program header #0 (PT_LOAD) [PF_X + PF_W + PF_R + PF_ARM_ENTRY]
    Size : 11328 bytes (8008 bytes in file)
    Virtual address: 0x00000000 (Alignment 8)


========================================================================

** Section #1 'ER_RO' (SHT_PROGBITS) [SHF_ALLOC + SHF_EXECINSTR]
    Size   : 7880 bytes (alignment 4)
    Address: 0x00000000

    $d.realdata
    RESET
    __Vectors
        0x00000000:    20000d78    x..     DCD    536874360
        0x00000004:    0000023d    =...    DCD    573
        0x00000008:    0000026f    o...    DCD    623
        0x0000000c:    000001e9    ....    DCD    489
        0x00000010:    00000273    s...    DCD    627
        0x00000014:    00000275    u...    DCD    629
        0x00000018:    00000277    w...    DCD    631
        0x0000001c:    00000000    ....    DCD    0
        0x00000020:    00000000    ....    DCD    0
        0x00000024:    00000000    ....    DCD    0
        0x00000028:    00000000    ....    DCD    0
        0x0000002c:    00000279    y...    DCD    633
        0x00000030:    0000027b    {...    DCD    635
        0x00000034:    00000000    ....    DCD    0
        0x00000038:    0000027d    }...    DCD    637
        0x0000003c:    0000027f    ....    DCD    639
        0x00000040:    00000281    ....    DCD    641
        0x00000044:    00000281    ....    DCD    641
        0x00000048:    00000281    ....    DCD    641
        0x0000004c:    00000281    ....    DCD    641
        0x00000050:    00000281    ....    DCD    641
        0x00000054:    00000281    ....    DCD    641
        0x00000058:    00000281    ....    DCD    641
        0x0000005c:    00000281    ....    DCD    641
        0x00000060:    00000281    ....    DCD    641
        0x00000064:    00000281    ....    DCD    641
        0x00000068:    00000281    ....    DCD    641
        0x0000006c:    00000281    ....    DCD    641
        0x00000070:    00000281    ....    DCD    641
        0x00000074:    00000281    ....    DCD    641
        0x00000078:    00000281    ....    DCD    641
        0x0000007c:    00000281    ....    DCD    641
        0x00000080:    00000281    ....    DCD    641
        0x00000084:    00000281    ....    DCD    641
        0x00000088:    00000281    ....    DCD    641
        0x0000008c:    00000281    ....    DCD    641
        0x00000090:    00000281    ....    DCD    641
        0x00000094:    00000281    ....    DCD    641
        0x00000098:    00000281    ....    DCD    641
        0x0000009c:    00000281    ....    DCD    641
        0x000000a0:    00000281    ....    DCD    641
        0x000000a4:    00000281    ....    DCD    641
        0x000000a8:    00000281    ....    DCD    641
        0x000000ac:    00000281    ....    DCD    641
        0x000000b0:    00000281    ....    DCD    641
        0x000000b4:    00000281    ....    DCD    641
        0x000000b8:    00000281    ....    DCD    641
        0x000000bc:    00000281    ....    DCD    641
        0x000000c0:    000010dd    ....    DCD    4317
        0x000000c4:    00000281    ....    DCD    641
        0x000000c8:    00000281    ....    DCD    641
        0x000000cc:    00000281    ....    DCD    641
        0x000000d0:    00000281    ....    DCD    641
        0x000000d4:    00000281    ....    DCD    641
        0x000000d8:    00000281    ....    DCD    641
        0x000000dc:    00000281    ....    DCD    641
        0x000000e0:    00000281    ....    DCD    641
        0x000000e4:    00000281    ....    DCD    641
        0x000000e8:    00000281    ....    DCD    641
        0x000000ec:    00000281    ....    DCD    641
        0x000000f0:    00000281    ....    DCD    641
        0x000000f4:    00000281    ....    DCD    641
        0x000000f8:    00000281    ....    DCD    641
        0x000000fc:    00000281    ....    DCD    641
        0x00000100:    00000281    ....    DCD    641
        0x00000104:    00000281    ....    DCD    641
        0x00000108:    00000281    ....    DCD    641
        0x0000010c:    00000281    ....    DCD    641
        0x00000110:    00000281    ....    DCD    641
        0x00000114:    00000281    ....    DCD    641
        0x00000118:    00000281    ....    DCD    641
        0x0000011c:    00000281    ....    DCD    641
        0x00000120:    00000281    ....    DCD    641
        0x00000124:    00000281    ....    DCD    641
        0x00000128:    00000281    ....    DCD    641
        0x0000012c:    00000281    ....    DCD    641
        0x00000130:    00000281    ....    DCD    641
        0x00000134:    00000281    ....    DCD    641
        0x00000138:    00000281    ....    DCD    641
        0x0000013c:    00000281    ....    DCD    641
    $t
    !!!main
    __Vectors_End
    __main
        0x00000140:    f000f802    ....    BL       __scatterload ; 0x148
        0x00000144:    f000f841    ..A.    BL       __rt_entry ; 0x1ca
    !!!scatter
    __scatterload
    __scatterload_rt2
    __scatterload_rt2_thumb_only
        0x00000148:    a00a        ..      ADR      r0,{pc}+0x2c ; 0x174
        0x0000014a:    e8900c00    ....    LDM      r0,{r10,r11}
        0x0000014e:    4482        .D      ADD      r10,r10,r0
        0x00000150:    4483        .D      ADD      r11,r11,r0
        0x00000152:    f1aa0701    ....    SUB      r7,r10,#1
    __scatterload_null
        0x00000156:    45da        .E      CMP      r10,r11
        0x00000158:    d101        ..      BNE      0x15e ; __scatterload_null + 8
        0x0000015a:    f000f836    ..6.    BL       __rt_entry ; 0x1ca
        0x0000015e:    f2af0e09    ....    ADR      lr,{pc}-7 ; 0x157
        0x00000162:    e8ba000f    ....    LDM      r10!,{r0-r3}
        0x00000166:    f0130f01    ....    TST      r3,#1
        0x0000016a:    bf18        ..      IT       NE
        0x0000016c:    1afb        ..      SUBNE    r3,r7,r3
        0x0000016e:    f0430301    C...    ORR      r3,r3,#1
        0x00000172:    4718        .G      BX       r3
    $d
        0x00000174:    00001d34    4...    DCD    7476
        0x00000178:    00001d54    T...    DCD    7508
    $t
    !!handler_copy
    __scatterload_copy
        0x0000017c:    3a10        .:      SUBS     r2,r2,#0x10
        0x0000017e:    bf24        $.      ITT      CS
        0x00000180:    c878        x.      LDMCS    r0!,{r3-r6}
        0x00000182:    c178        x.      STMCS    r1!,{r3-r6}
        0x00000184:    d8fa        ..      BHI      __scatterload_copy ; 0x17c
        0x00000186:    0752        R.      LSLS     r2,r2,#29
        0x00000188:    bf24        $.      ITT      CS
        0x0000018a:    c830        0.      LDMCS    r0!,{r4,r5}
        0x0000018c:    c130        0.      STMCS    r1!,{r4,r5}
        0x0000018e:    bf44        D.      ITT      MI
        0x00000190:    6804        .h      LDRMI    r4,[r0,#0]
        0x00000192:    600c        .`      STRMI    r4,[r1,#0]
        0x00000194:    4770        pG      BX       lr
        0x00000196:    0000        ..      MOVS     r0,r0
    !!handler_zi
    __scatterload_zeroinit
        0x00000198:    2300        .#      MOVS     r3,#0
        0x0000019a:    2400        .$      MOVS     r4,#0
        0x0000019c:    2500        .%      MOVS     r5,#0
        0x0000019e:    2600        .&      MOVS     r6,#0
        0x000001a0:    3a10        .:      SUBS     r2,r2,#0x10
        0x000001a2:    bf28        (.      IT       CS
        0x000001a4:    c178        x.      STMCS    r1!,{r3-r6}
        0x000001a6:    d8fb        ..      BHI      0x1a0 ; __scatterload_zeroinit + 8
        0x000001a8:    0752        R.      LSLS     r2,r2,#29
        0x000001aa:    bf28        (.      IT       CS
        0x000001ac:    c130        0.      STMCS    r1!,{r4,r5}
        0x000001ae:    bf48        H.      IT       MI
        0x000001b0:    600b        .`      STRMI    r3,[r1,#0]
        0x000001b2:    4770        pG      BX       lr
    .ARM.Collect$$_printf_percent$$0000000C
    .ARM.Collect$$_printf_percent$$00000000
    _printf_percent
    _printf_x
        0x000001b4:    2978        x)      CMP      r1,#0x78
        0x000001b6:    f0008087    ....    BEQ.W    _printf_int_hex ; 0x2c8
    .ARM.Collect$$_printf_percent$$00000017
    _printf_percent_end
        0x000001ba:    2000        .       MOVS     r0,#0
        0x000001bc:    4770        pG      BX       lr
    .ARM.Collect$$libinit$$00000000
    __rt_lib_init
        0x000001be:    b51f        ..      PUSH     {r0-r4,lr}
    .ARM.Collect$$libinit$$00000001
    __rt_lib_init_fp_1
        0x000001c0:    f001fe30    ..0.    BL       _fp_init ; 0x1e24
    .ARM.Collect$$libinit$$00000008
    .ARM.Collect$$libinit$$0000000A
    .ARM.Collect$$libinit$$0000000C
    .ARM.Collect$$libinit$$0000000F
    .ARM.Collect$$libinit$$00000011
    .ARM.Collect$$libinit$$00000013
    .ARM.Collect$$libinit$$00000015
    .ARM.Collect$$libinit$$00000017
    .ARM.Collect$$libinit$$00000019
    .ARM.Collect$$libinit$$0000001B
    .ARM.Collect$$libinit$$0000001D
    .ARM.Collect$$libinit$$0000001F
    .ARM.Collect$$libinit$$00000021
    .ARM.Collect$$libinit$$00000023
    .ARM.Collect$$libinit$$0000002A
    .ARM.Collect$$libinit$$0000002C
    .ARM.Collect$$libinit$$0000002E
    .ARM.Collect$$libinit$$00000030
    .ARM.Collect$$libinit$$00000031
    __rt_lib_init_alloca_1
    __rt_lib_init_argv_1
    __rt_lib_init_atexit_1
    __rt_lib_init_clock_1
    __rt_lib_init_cpp_1
    __rt_lib_init_exceptions_1
    __rt_lib_init_fp_trap_1
    __rt_lib_init_getenv_1
    __rt_lib_init_heap_1
    __rt_lib_init_lc_collate_1
    __rt_lib_init_lc_ctype_1
    __rt_lib_init_lc_monetary_1
    __rt_lib_init_lc_numeric_1
    __rt_lib_init_lc_time_1
    __rt_lib_init_rand_1
    __rt_lib_init_return
    __rt_lib_init_signal_1
    __rt_lib_init_stdio_1
    __rt_lib_init_user_alloc_1
        0x000001c4:    bd1f        ..      POP      {r0-r4,pc}
    .ARM.Collect$$libshutdown$$00000000
    __rt_lib_shutdown
        0x000001c6:    b510        ..      PUSH     {r4,lr}
    .ARM.Collect$$libshutdown$$00000003
    .ARM.Collect$$libshutdown$$00000006
    .ARM.Collect$$libshutdown$$00000009
    .ARM.Collect$$libshutdown$$0000000B
    .ARM.Collect$$libshutdown$$0000000E
    .ARM.Collect$$libshutdown$$0000000F
    __rt_lib_shutdown_fp_trap_1
    __rt_lib_shutdown_heap_1
    __rt_lib_shutdown_return
    __rt_lib_shutdown_signal_1
    __rt_lib_shutdown_stdio_1
    __rt_lib_shutdown_user_alloc_1
        0x000001c8:    bd10        ..      POP      {r4,pc}
    .ARM.Collect$$rtentry$$00000000
    .ARM.Collect$$rtentry$$00000002
    .ARM.Collect$$rtentry$$00000004
    __rt_entry
    __rt_entry_presh_1
    __rt_entry_sh
        0x000001ca:    f000fa33    ..3.    BL       __user_setup_stackheap ; 0x634
        0x000001ce:    4611        .F      MOV      r1,r2
    .ARM.Collect$$rtentry$$00000009
    .ARM.Collect$$rtentry$$0000000A
    __rt_entry_li
    __rt_entry_postsh_1
        0x000001d0:    f7fffff5    ....    BL       __rt_lib_init ; 0x1be
    .ARM.Collect$$rtentry$$0000000C
    .ARM.Collect$$rtentry$$0000000D
    __rt_entry_main
    __rt_entry_postli_1
        0x000001d4:    f001fd16    ....    BL       main ; 0x1c04
        0x000001d8:    f000fa51    ..Q.    BL       exit ; 0x67e
    .ARM.Collect$$rtexit$$00000000
    __rt_exit
        0x000001dc:    b403        ..      PUSH     {r0,r1}
    .ARM.Collect$$rtexit$$00000002
    .ARM.Collect$$rtexit$$00000003
    __rt_exit_ls
    __rt_exit_prels_1
        0x000001de:    f7fffff2    ....    BL       __rt_lib_shutdown ; 0x1c6
    .ARM.Collect$$rtexit$$00000004
    __rt_exit_exit
        0x000001e2:    bc03        ..      POP      {r0,r1}
        0x000001e4:    f001fcb0    ....    BL       _sys_exit ; 0x1b48
    .emb_text
    $v0
    HardFault_Handler
        0x000001e8:    4670        pF      MOV      r0,lr
        0x000001ea:    0740        @.      LSLS     r0,r0,#29
        0x000001ec:    d402        ..      BMI      0x1f4 ; HardFault_Handler + 12
        0x000001ee:    f3ef8008    ....    MRS      r0,MSP
        0x000001f2:    e001        ..      B        0x1f8 ; HardFault_Handler + 16
        0x000001f4:    f3ef8009    ....    MRS      r0,PSP
        0x000001f8:    6981        .i      LDR      r1,[r0,#0x18]
        0x000001fa:    880b        ..      LDRH     r3,[r1,#0]
        0x000001fc:    f64b62ab    K..b    MOV      r2,#0xbeab
        0x00000200:    4293        .B      CMP      r3,r2
        0x00000202:    d102        ..      BNE      0x20a ; HardFault_Handler + 34
        0x00000204:    3104        .1      ADDS     r1,#4
        0x00000206:    6181        .a      STR      r1,[r0,#0x18]
        0x00000208:    4770        pG      BX       lr
        0x0000020a:    2004        .       MOVS     r0,#4
        0x0000020c:    4671        qF      MOV      r1,lr
        0x0000020e:    4208        .B      TST      r0,r1
        0x00000210:    d002        ..      BEQ      0x218 ; HardFault_Handler + 48
        0x00000212:    f3ef8009    ....    MRS      r0,PSP
        0x00000216:    e001        ..      B        0x21c ; HardFault_Handler + 52
        0x00000218:    f3ef8008    ....    MRS      r0,MSP
        0x0000021c:    4671        qF      MOV      r1,lr
        0x0000021e:    4a01        .J      LDR      r2,[pc,#4] ; [0x224] = 0xa89
        0x00000220:    4710        .G      BX       r2
        0x00000222:    e7fe        ..      B        0x222 ; HardFault_Handler + 58
    $d
        0x00000224:    00000a89    ....    DCD    2697
    $t
    SH_DoCommand
        0x00000228:    beab        ..      BKPT     #0xab
        0x0000022a:    e001        ..      B        0x230 ; SH_DoCommand + 8
        0x0000022c:    2000        .       MOVS     r0,#0
        0x0000022e:    4770        pG      BX       lr
        0x00000230:    2a00        .*      CMP      r2,#0
        0x00000232:    d000        ..      BEQ      0x236 ; SH_DoCommand + 14
        0x00000234:    6010        .`      STR      r0,[r2,#0]
        0x00000236:    2001        .       MOVS     r0,#1
        0x00000238:    4770        pG      BX       lr
        0x0000023a:    0000        ..      MOVS     r0,r0
    .text
    $v0
    Reset_Handler
        0x0000023c:    4814        .H      LDR      r0,[pc,#80] ; [0x290] = 0x40000100
        0x0000023e:    f04f0159    O.Y.    MOV      r1,#0x59
        0x00000242:    6001        .`      STR      r1,[r0,#0]
        0x00000244:    f04f0116    O...    MOV      r1,#0x16
        0x00000248:    6001        .`      STR      r1,[r0,#0]
        0x0000024a:    f04f0188    O...    MOV      r1,#0x88
        0x0000024e:    6001        .`      STR      r1,[r0,#0]
        0x00000250:    4a10        .J      LDR      r2,[pc,#64] ; [0x294] = 0x40000024
        0x00000252:    f64521a5    E..!    MOV      r1,#0x5aa5
        0x00000256:    6011        .`      STR      r1,[r2,#0]
        0x00000258:    4a0f        .J      LDR      r2,[pc,#60] ; [0x298] = 0x40000200
        0x0000025a:    6811        .h      LDR      r1,[r2,#0]
        0x0000025c:    f4215180    !..Q    BIC      r1,r1,#0x1000
        0x00000260:    6011        .`      STR      r1,[r2,#0]
        0x00000262:    2100        .!      MOVS     r1,#0
        0x00000264:    6001        .`      STR      r1,[r0,#0]
        0x00000266:    480d        .H      LDR      r0,[pc,#52] ; [0x29c] = 0xfc1
        0x00000268:    4780        .G      BLX      r0
        0x0000026a:    480d        .H      LDR      r0,[pc,#52] ; [0x2a0] = 0x141
        0x0000026c:    4700        .G      BX       r0
    NMI_Handler
        0x0000026e:    e7fe        ..      B        NMI_Handler ; 0x26e
        0x00000270:    e7fe        ..      B        0x270 ; NMI_Handler + 2
    MemManage_Handler
        0x00000272:    e7fe        ..      B        MemManage_Handler ; 0x272
    BusFault_Handler
        0x00000274:    e7fe        ..      B        BusFault_Handler ; 0x274
    UsageFault_Handler
        0x00000276:    e7fe        ..      B        UsageFault_Handler ; 0x276
    SVC_Handler
        0x00000278:    e7fe        ..      B        SVC_Handler ; 0x278
    DebugMon_Handler
        0x0000027a:    e7fe        ..      B        DebugMon_Handler ; 0x27a
    PendSV_Handler
        0x0000027c:    e7fe        ..      B        PendSV_Handler ; 0x27c
    SysTick_Handler
        0x0000027e:    e7fe        ..      B        SysTick_Handler ; 0x27e
    Default_Handler
    ACMP01_IRQHandler
    ADC00_IRQHandler
    ADC01_IRQHandler
    ADC02_IRQHandler
    ADC03_IRQHandler
    BOD_IRQHandler
    BRAKE0_IRQHandler
    BRAKE1_IRQHandler
    CAN0_IRQHandler
    CLKFAIL_IRQHandler
    DAC_IRQHandler
    EINT0_IRQHandler
    EINT1_IRQHandler
    EINT2_IRQHandler
    EINT3_IRQHandler
    EINT4_IRQHandler
    EINT5_IRQHandler
    GPA_IRQHandler
    GPB_IRQHandler
    GPC_IRQHandler
    GPD_IRQHandler
    GPE_IRQHandler
    GPF_IRQHandler
    I2C0_IRQHandler
    I2C1_IRQHandler
    IRC_IRQHandler
    PDMA_IRQHandler
    PWM0P0_IRQHandler
    PWM0P1_IRQHandler
    PWM0P2_IRQHandler
    PWM1P0_IRQHandler
    PWM1P1_IRQHandler
    PWM1P2_IRQHandler
    PWRWU_IRQHandler
    RAMPE_IRQHandler
    RTC_IRQHandler
    SC0_IRQHandler
    SPI0_IRQHandler
    SPI1_IRQHandler
    SPI2_IRQHandler
    TAMPER_IRQHandler
    TK_IRQHandler
    TMR1_IRQHandler
    TMR2_IRQHandler
    TMR3_IRQHandler
    UART0_IRQHandler
    UART1_IRQHandler
    UART2_IRQHandler
    UART3_IRQHandler
    USBD_IRQHandler
    USBH_IRQHandler
    USBOTG_IRQHandler
    WDT_IRQHandler
    WWDT_IRQHandler
        0x00000280:    e7fe        ..      B        Default_Handler ; 0x280
    $d
        0x00000282:    0000        ..      DCW    0
    $t
    __user_initial_stackheap
        0x00000284:    4807        .H      LDR      r0,[pc,#28] ; [0x2a4] = 0x20000978
        0x00000286:    4908        .I      LDR      r1,[pc,#32] ; [0x2a8] = 0x20000d78
        0x00000288:    4a06        .J      LDR      r2,[pc,#24] ; [0x2a4] = 0x20000978
        0x0000028a:    4b08        .K      LDR      r3,[pc,#32] ; [0x2ac] = 0x20000978
        0x0000028c:    4770        pG      BX       lr
    $d
        0x0000028e:    0000        ..      DCW    0
        0x00000290:    40000100    ...@    DCD    1073742080
        0x00000294:    40000024    $..@    DCD    1073741860
        0x00000298:    40000200    ...@    DCD    1073742336
        0x0000029c:    00000fc1    ....    DCD    4033
        0x000002a0:    00000141    A...    DCD    321
        0x000002a4:    20000978    x..     DCD    536873336
        0x000002a8:    20000d78    x..     DCD    536874360
        0x000002ac:    20000978    x..     DCD    536873336
    $t
    .text
    __2printf
        0x000002b0:    b40f        ..      PUSH     {r0-r3}
        0x000002b2:    4904        .I      LDR      r1,[pc,#16] ; [0x2c4] = 0x20000030
        0x000002b4:    b510        ..      PUSH     {r4,lr}
        0x000002b6:    aa03        ..      ADD      r2,sp,#0xc
        0x000002b8:    9802        ..      LDR      r0,[sp,#8]
        0x000002ba:    f000f969    ..i.    BL       _printf_char_file ; 0x590
        0x000002be:    bc10        ..      POP      {r4}
        0x000002c0:    f85dfb14    ]...    LDR      pc,[sp],#0x14
    $d
        0x000002c4:    20000030    0..     DCD    536870960
    $t
    .text
    _printf_int_hex
    _printf_longlong_hex
        0x000002c8:    b570        p.      PUSH     {r4-r6,lr}
        0x000002ca:    4604        .F      MOV      r4,r0
        0x000002cc:    460d        .F      MOV      r5,r1
        0x000002ce:    4621        !F      MOV      r1,r4
        0x000002d0:    6810        .h      LDR      r0,[r2,#0]
        0x000002d2:    f3af8000    ....    NOP.W    
        0x000002d6:    8821        !.      LDRH     r1,[r4,#0]
        0x000002d8:    0509        ..      LSLS     r1,r1,#20
        0x000002da:    d502        ..      BPL      0x2e2 ; _printf_int_hex + 26
        0x000002dc:    4a0f        .J      LDR      r2,[pc,#60] ; [0x31c] = 0x1b9e
        0x000002de:    447a        zD      ADD      r2,r2,pc
        0x000002e0:    e002        ..      B        0x2e8 ; _printf_int_hex + 32
        0x000002e2:    4a0e        .J      LDR      r2,[pc,#56] ; [0x31c] = 0x1b9e
        0x000002e4:    447a        zD      ADD      r2,r2,pc
        0x000002e6:    320e        .2      ADDS     r2,r2,#0xe
        0x000002e8:    2100        .!      MOVS     r1,#0
        0x000002ea:    f1040324    ..$.    ADD      r3,r4,#0x24
        0x000002ee:    e005        ..      B        0x2fc ; _printf_int_hex + 52
        0x000002f0:    f000060f    ....    AND      r6,r0,#0xf
        0x000002f4:    0900        ..      LSRS     r0,r0,#4
        0x000002f6:    5d96        .]      LDRB     r6,[r2,r6]
        0x000002f8:    545e        ^T      STRB     r6,[r3,r1]
        0x000002fa:    1c49        I.      ADDS     r1,r1,#1
        0x000002fc:    2800        .(      CMP      r0,#0
        0x000002fe:    d1f7        ..      BNE      0x2f0 ; _printf_int_hex + 40
        0x00000300:    7820         x      LDRB     r0,[r4,#0]
        0x00000302:    2300        .#      MOVS     r3,#0
        0x00000304:    0700        ..      LSLS     r0,r0,#28
        0x00000306:    d504        ..      BPL      0x312 ; _printf_int_hex + 74
        0x00000308:    2d70        p-      CMP      r5,#0x70
        0x0000030a:    d002        ..      BEQ      0x312 ; _printf_int_hex + 74
        0x0000030c:    b109        ..      CBZ      r1,0x312 ; _printf_int_hex + 74
        0x0000030e:    2302        .#      MOVS     r3,#2
        0x00000310:    3211        .2      ADDS     r2,r2,#0x11
        0x00000312:    4620         F      MOV      r0,r4
        0x00000314:    e8bd4070    ..p@    POP      {r4-r6,lr}
        0x00000318:    f000b8e0    ....    B.W      _printf_int_common ; 0x4dc
    $d
        0x0000031c:    00001b9e    ....    DCD    7070
    $t
    .text
    __printf
        0x00000320:    e92d47f0    -..G    PUSH     {r4-r10,lr}
        0x00000324:    f04f0a00    O...    MOV      r10,#0
        0x00000328:    4689        .F      MOV      r9,r1
        0x0000032a:    4604        .F      MOV      r4,r0
        0x0000032c:    f8c0a020    .. .    STR      r10,[r0,#0x20]
        0x00000330:    4620         F      MOV      r0,r4
        0x00000332:    68e1        .h      LDR      r1,[r4,#0xc]
        0x00000334:    4788        .G      BLX      r1
        0x00000336:    2800        .(      CMP      r0,#0
        0x00000338:    d076        v.      BEQ      0x428 ; __printf + 264
        0x0000033a:    2825        %(      CMP      r0,#0x25
        0x0000033c:    d006        ..      BEQ      0x34c ; __printf + 44
        0x0000033e:    e9d42101    ...!    LDRD     r2,r1,[r4,#4]
        0x00000342:    4790        .G      BLX      r2
        0x00000344:    6a20         j      LDR      r0,[r4,#0x20]
        0x00000346:    1c40        @.      ADDS     r0,r0,#1
        0x00000348:    6220         b      STR      r0,[r4,#0x20]
        0x0000034a:    e7f1        ..      B        0x330 ; __printf + 16
        0x0000034c:    68e1        .h      LDR      r1,[r4,#0xc]
        0x0000034e:    4620         F      MOV      r0,r4
        0x00000350:    2500        .%      MOVS     r5,#0
        0x00000352:    4788        .G      BLX      r1
        0x00000354:    f8c4a01c    ....    STR      r10,[r4,#0x1c]
        0x00000358:    4606        .F      MOV      r6,r0
        0x0000035a:    2700        .'      MOVS     r7,#0
        0x0000035c:    f8c4a018    ....    STR      r10,[r4,#0x18]
        0x00000360:    2e2a        *.      CMP      r6,#0x2a
        0x00000362:    d009        ..      BEQ      0x378 ; __printf + 88
        0x00000364:    4630        0F      MOV      r0,r6
        0x00000366:    f001fbe7    ....    BL       _is_digit ; 0x1b38
        0x0000036a:    b338        8.      CBZ      r0,0x3bc ; __printf + 156
        0x0000036c:    eb040887    ....    ADD      r8,r4,r7,LSL #2
        0x00000370:    3e30        0>      SUBS     r6,r6,#0x30
        0x00000372:    f8c86018    ...`    STR      r6,[r8,#0x18]
        0x00000376:    e019        ..      B        0x3ac ; __printf + 140
        0x00000378:    f8591b04    Y...    LDR      r1,[r9],#4
        0x0000037c:    4620         F      MOV      r0,r4
        0x0000037e:    eb040287    ....    ADD      r2,r4,r7,LSL #2
        0x00000382:    6191        .a      STR      r1,[r2,#0x18]
        0x00000384:    68e1        .h      LDR      r1,[r4,#0xc]
        0x00000386:    4788        .G      BLX      r1
        0x00000388:    2f01        ./      CMP      r7,#1
        0x0000038a:    4606        .F      MOV      r6,r0
        0x0000038c:    d118        ..      BNE      0x3c0 ; __printf + 160
        0x0000038e:    69e0        .i      LDR      r0,[r4,#0x1c]
        0x00000390:    2800        .(      CMP      r0,#0
        0x00000392:    da20         .      BGE      0x3d6 ; __printf + 182
        0x00000394:    f0250520    %. .    BIC      r5,r5,#0x20
        0x00000398:    e01d        ..      B        0x3d6 ; __printf + 182
        0x0000039a:    f8d80018    ....    LDR      r0,[r8,#0x18]
        0x0000039e:    eb000080    ....    ADD      r0,r0,r0,LSL #2
        0x000003a2:    eb060040    ..@.    ADD      r0,r6,r0,LSL #1
        0x000003a6:    3830        08      SUBS     r0,r0,#0x30
        0x000003a8:    f8c80018    ....    STR      r0,[r8,#0x18]
        0x000003ac:    4620         F      MOV      r0,r4
        0x000003ae:    68e1        .h      LDR      r1,[r4,#0xc]
        0x000003b0:    4788        .G      BLX      r1
        0x000003b2:    4606        .F      MOV      r6,r0
        0x000003b4:    f001fbc0    ....    BL       _is_digit ; 0x1b38
        0x000003b8:    2800        .(      CMP      r0,#0
        0x000003ba:    d1ee        ..      BNE      0x39a ; __printf + 122
        0x000003bc:    2f01        ./      CMP      r7,#1
        0x000003be:    d00a        ..      BEQ      0x3d6 ; __printf + 182
        0x000003c0:    2e2e        ..      CMP      r6,#0x2e
        0x000003c2:    d108        ..      BNE      0x3d6 ; __printf + 182
        0x000003c4:    4620         F      MOV      r0,r4
        0x000003c6:    68e1        .h      LDR      r1,[r4,#0xc]
        0x000003c8:    4788        .G      BLX      r1
        0x000003ca:    1c7f        ..      ADDS     r7,r7,#1
        0x000003cc:    4606        .F      MOV      r6,r0
        0x000003ce:    2f02        ./      CMP      r7,#2
        0x000003d0:    f0450520    E. .    ORR      r5,r5,#0x20
        0x000003d4:    dbc4        ..      BLT      0x360 ; __printf + 64
        0x000003d6:    69a0        .i      LDR      r0,[r4,#0x18]
        0x000003d8:    2800        .(      CMP      r0,#0
        0x000003da:    da03        ..      BGE      0x3e4 ; __printf + 196
        0x000003dc:    4240        @B      RSBS     r0,r0,#0
        0x000003de:    f0450501    E...    ORR      r5,r5,#1
        0x000003e2:    61a0        .a      STR      r0,[r4,#0x18]
        0x000003e4:    07e8        ..      LSLS     r0,r5,#31
        0x000003e6:    d001        ..      BEQ      0x3ec ; __printf + 204
        0x000003e8:    f0250510    %...    BIC      r5,r5,#0x10
        0x000003ec:    b1b6        ..      CBZ      r6,0x41c ; __printf + 252
        0x000003ee:    f1a60041    ..A.    SUB      r0,r6,#0x41
        0x000003f2:    2819        .(      CMP      r0,#0x19
        0x000003f4:    d802        ..      BHI      0x3fc ; __printf + 220
        0x000003f6:    3620         6      ADDS     r6,r6,#0x20
        0x000003f8:    f4456500    E..e    ORR      r5,r5,#0x800
        0x000003fc:    464a        JF      MOV      r2,r9
        0x000003fe:    4631        1F      MOV      r1,r6
        0x00000400:    4620         F      MOV      r0,r4
        0x00000402:    6025        %`      STR      r5,[r4,#0]
        0x00000404:    464d        MF      MOV      r5,r9
        0x00000406:    f7fffed5    ....    BL       _printf_percent ; 0x1b4
        0x0000040a:    b158        X.      CBZ      r0,0x424 ; __printf + 260
        0x0000040c:    2801        .(      CMP      r0,#1
        0x0000040e:    d006        ..      BEQ      0x41e ; __printf + 254
        0x00000410:    1ded        ..      ADDS     r5,r5,#7
        0x00000412:    f0250007    %...    BIC      r0,r5,#7
        0x00000416:    f1000908    ....    ADD      r9,r0,#8
        0x0000041a:    e789        ..      B        0x330 ; __printf + 16
        0x0000041c:    e004        ..      B        0x428 ; __printf + 264
        0x0000041e:    f1050904    ....    ADD      r9,r5,#4
        0x00000422:    e785        ..      B        0x330 ; __printf + 16
        0x00000424:    4630        0F      MOV      r0,r6
        0x00000426:    e78a        ..      B        0x33e ; __printf + 30
        0x00000428:    6a20         j      LDR      r0,[r4,#0x20]
        0x0000042a:    e8bd87f0    ....    POP      {r4-r10,pc}
    .text
    __aeabi_memcpy4
    __aeabi_memcpy8
    __rt_memcpy_w
        0x0000042e:    b510        ..      PUSH     {r4,lr}
        0x00000430:    3a20         :      SUBS     r2,r2,#0x20
        0x00000432:    f0c0800b    ....    BCC.W    0x44c ; __aeabi_memcpy4 + 30
        0x00000436:    e8b15018    ...P    LDM      r1!,{r3,r4,r12,lr}
        0x0000043a:    3a20         :      SUBS     r2,r2,#0x20
        0x0000043c:    e8a05018    ...P    STM      r0!,{r3,r4,r12,lr}
        0x00000440:    e8b15018    ...P    LDM      r1!,{r3,r4,r12,lr}
        0x00000444:    e8a05018    ...P    STM      r0!,{r3,r4,r12,lr}
        0x00000448:    f4bfaff5    ....    BCS.W    0x436 ; __aeabi_memcpy4 + 8
        0x0000044c:    ea5f7c02    _..|    LSLS     r12,r2,#28
        0x00000450:    bf24        $.      ITT      CS
        0x00000452:    e8b15018    ...P    LDMCS    r1!,{r3,r4,r12,lr}
        0x00000456:    e8a05018    ...P    STMCS    r0!,{r3,r4,r12,lr}
        0x0000045a:    bf44        D.      ITT      MI
        0x0000045c:    c918        ..      LDMMI    r1!,{r3,r4}
        0x0000045e:    c018        ..      STMMI    r0!,{r3,r4}
        0x00000460:    e8bd4010    ...@    POP      {r4,lr}
        0x00000464:    ea5f7c82    _..|    LSLS     r12,r2,#30
        0x00000468:    bf24        $.      ITT      CS
        0x0000046a:    f8513b04    Q..;    LDRCS    r3,[r1],#4
        0x0000046e:    f8403b04    @..;    STRCS    r3,[r0],#4
        0x00000472:    bf08        ..      IT       EQ
        0x00000474:    4770        pG      BXEQ     lr
    _memcpy_lastbytes_aligned
        0x00000476:    07d2        ..      LSLS     r2,r2,#31
        0x00000478:    bf28        (.      IT       CS
        0x0000047a:    f8313b02    1..;    LDRHCS   r3,[r1],#2
        0x0000047e:    bf48        H.      IT       MI
        0x00000480:    f8112b01    ...+    LDRBMI   r2,[r1],#1
        0x00000484:    bf28        (.      IT       CS
        0x00000486:    f8203b02     ..;    STRHCS   r3,[r0],#2
        0x0000048a:    bf48        H.      IT       MI
        0x0000048c:    f8002b01    ...+    STRBMI   r2,[r0],#1
        0x00000490:    4770        pG      BX       lr
    .text
    __aeabi_memclr
    __rt_memclr
        0x00000492:    f04f0200    O...    MOV      r2,#0
    _memset
        0x00000496:    2904        .)      CMP      r1,#4
        0x00000498:    f0c08012    ....    BCC.W    0x4c0 ; _memset + 42
        0x0000049c:    f0100c03    ....    ANDS     r12,r0,#3
        0x000004a0:    f000808a    ....    BEQ.W    _memset_w ; 0x5b8
        0x000004a4:    f1cc0c04    ....    RSB      r12,r12,#4
        0x000004a8:    f1bc0f02    ....    CMP      r12,#2
        0x000004ac:    bf18        ..      IT       NE
        0x000004ae:    f8002b01    ...+    STRBNE   r2,[r0],#1
        0x000004b2:    bfa8        ..      IT       GE
        0x000004b4:    f8202b02     ..+    STRHGE   r2,[r0],#2
        0x000004b8:    eba1010c    ....    SUB      r1,r1,r12
        0x000004bc:    f000b87c    ..|.    B.W      _memset_w ; 0x5b8
        0x000004c0:    ea5f7cc1    _..|    LSLS     r12,r1,#31
        0x000004c4:    bf24        $.      ITT      CS
        0x000004c6:    f8002b01    ...+    STRBCS   r2,[r0],#1
        0x000004ca:    f8002b01    ...+    STRBCS   r2,[r0],#1
        0x000004ce:    bf48        H.      IT       MI
        0x000004d0:    f8002b01    ...+    STRBMI   r2,[r0],#1
        0x000004d4:    4770        pG      BX       lr
    .text
    __use_two_region_memory
        0x000004d6:    4770        pG      BX       lr
    __rt_heap_escrow$2region
        0x000004d8:    4770        pG      BX       lr
    __rt_heap_expand$2region
        0x000004da:    4770        pG      BX       lr
    .text
    _printf_int_common
        0x000004dc:    e92d47f0    -..G    PUSH     {r4-r10,lr}
        0x000004e0:    460d        .F      MOV      r5,r1
        0x000004e2:    4699        .F      MOV      r9,r3
        0x000004e4:    4692        .F      MOV      r10,r2
        0x000004e6:    4604        .F      MOV      r4,r0
        0x000004e8:    f1000824    ..$.    ADD      r8,r0,#0x24
        0x000004ec:    6801        .h      LDR      r1,[r0,#0]
        0x000004ee:    0688        ..      LSLS     r0,r1,#26
        0x000004f0:    d504        ..      BPL      0x4fc ; _printf_int_common + 32
        0x000004f2:    69e0        .i      LDR      r0,[r4,#0x1c]
        0x000004f4:    f0210110    !...    BIC      r1,r1,#0x10
        0x000004f8:    6021        !`      STR      r1,[r4,#0]
        0x000004fa:    e000        ..      B        0x4fe ; _printf_int_common + 34
        0x000004fc:    2001        .       MOVS     r0,#1
        0x000004fe:    42a8        .B      CMP      r0,r5
        0x00000500:    dd01        ..      BLE      0x506 ; _printf_int_common + 42
        0x00000502:    1b47        G.      SUBS     r7,r0,r5
        0x00000504:    e000        ..      B        0x508 ; _printf_int_common + 44
        0x00000506:    2700        .'      MOVS     r7,#0
        0x00000508:    69a1        .i      LDR      r1,[r4,#0x18]
        0x0000050a:    197a        z.      ADDS     r2,r7,r5
        0x0000050c:    eb020009    ....    ADD      r0,r2,r9
        0x00000510:    1a08        ..      SUBS     r0,r1,r0
        0x00000512:    61a0        .a      STR      r0,[r4,#0x18]
        0x00000514:    7820         x      LDRB     r0,[r4,#0]
        0x00000516:    06c0        ..      LSLS     r0,r0,#27
        0x00000518:    d402        ..      BMI      0x520 ; _printf_int_common + 68
        0x0000051a:    4620         F      MOV      r0,r4
        0x0000051c:    f3af8000    ....    NOP.W    
        0x00000520:    2600        .&      MOVS     r6,#0
        0x00000522:    e008        ..      B        0x536 ; _printf_int_common + 90
        0x00000524:    e9d42101    ...!    LDRD     r2,r1,[r4,#4]
        0x00000528:    f81a0006    ....    LDRB     r0,[r10,r6]
        0x0000052c:    4790        .G      BLX      r2
        0x0000052e:    6a20         j      LDR      r0,[r4,#0x20]
        0x00000530:    1c40        @.      ADDS     r0,r0,#1
        0x00000532:    1c76        v.      ADDS     r6,r6,#1
        0x00000534:    6220         b      STR      r0,[r4,#0x20]
        0x00000536:    454e        NE      CMP      r6,r9
        0x00000538:    dbf4        ..      BLT      0x524 ; _printf_int_common + 72
        0x0000053a:    7820         x      LDRB     r0,[r4,#0]
        0x0000053c:    06c0        ..      LSLS     r0,r0,#27
        0x0000053e:    d50a        ..      BPL      0x556 ; _printf_int_common + 122
        0x00000540:    4620         F      MOV      r0,r4
        0x00000542:    f3af8000    ....    NOP.W    
        0x00000546:    e006        ..      B        0x556 ; _printf_int_common + 122
        0x00000548:    e9d42101    ...!    LDRD     r2,r1,[r4,#4]
        0x0000054c:    2030        0       MOVS     r0,#0x30
        0x0000054e:    4790        .G      BLX      r2
        0x00000550:    6a20         j      LDR      r0,[r4,#0x20]
        0x00000552:    1c40        @.      ADDS     r0,r0,#1
        0x00000554:    6220         b      STR      r0,[r4,#0x20]
        0x00000556:    1e38        8.      SUBS     r0,r7,#0
        0x00000558:    f1a70701    ....    SUB      r7,r7,#1
        0x0000055c:    dcf4        ..      BGT      0x548 ; _printf_int_common + 108
        0x0000055e:    e007        ..      B        0x570 ; _printf_int_common + 148
        0x00000560:    e9d42101    ...!    LDRD     r2,r1,[r4,#4]
        0x00000564:    f8180005    ....    LDRB     r0,[r8,r5]
        0x00000568:    4790        .G      BLX      r2
        0x0000056a:    6a20         j      LDR      r0,[r4,#0x20]
        0x0000056c:    1c40        @.      ADDS     r0,r0,#1
        0x0000056e:    6220         b      STR      r0,[r4,#0x20]
        0x00000570:    1e28        (.      SUBS     r0,r5,#0
        0x00000572:    f1a50501    ....    SUB      r5,r5,#1
        0x00000576:    dcf3        ..      BGT      0x560 ; _printf_int_common + 132
        0x00000578:    4620         F      MOV      r0,r4
        0x0000057a:    f3af8000    ....    NOP.W    
        0x0000057e:    7820         x      LDRB     r0,[r4,#0]
        0x00000580:    0600        ..      LSLS     r0,r0,#24
        0x00000582:    d502        ..      BPL      0x58a ; _printf_int_common + 174
        0x00000584:    2002        .       MOVS     r0,#2
        0x00000586:    e8bd87f0    ....    POP      {r4-r10,pc}
        0x0000058a:    2001        .       MOVS     r0,#1
        0x0000058c:    e7fb        ..      B        0x586 ; _printf_int_common + 170
        0x0000058e:    0000        ..      MOVS     r0,r0
    .text
    _printf_char_file
        0x00000590:    4b07        .K      LDR      r3,[pc,#28] ; [0x5b0] = 0x15d1
        0x00000592:    b570        p.      PUSH     {r4-r6,lr}
        0x00000594:    460d        .F      MOV      r5,r1
        0x00000596:    447b        {D      ADD      r3,r3,pc
        0x00000598:    f000f839    ..9.    BL       _printf_char_common ; 0x60e
        0x0000059c:    4604        .F      MOV      r4,r0
        0x0000059e:    4628        (F      MOV      r0,r5
        0x000005a0:    f001fae0    ....    BL       ferror ; 0x1b64
        0x000005a4:    b110        ..      CBZ      r0,0x5ac ; _printf_char_file + 28
        0x000005a6:    f04f30ff    O..0    MOV      r0,#0xffffffff
        0x000005aa:    bd70        p.      POP      {r4-r6,pc}
        0x000005ac:    4620         F      MOV      r0,r4
        0x000005ae:    bd70        p.      POP      {r4-r6,pc}
    $d
        0x000005b0:    000015d1    ....    DCD    5585
    $t
    .text
    __aeabi_memclr4
    __aeabi_memclr8
    __rt_memclr_w
        0x000005b4:    f04f0200    O...    MOV      r2,#0
    _memset_w
        0x000005b8:    b500        ..      PUSH     {lr}
        0x000005ba:    4613        .F      MOV      r3,r2
        0x000005bc:    4694        .F      MOV      r12,r2
        0x000005be:    4696        .F      MOV      lr,r2
        0x000005c0:    3920         9      SUBS     r1,r1,#0x20
        0x000005c2:    bf22        ".      ITTT     CS
        0x000005c4:    e8a0500c    ...P    STMCS    r0!,{r2,r3,r12,lr}
        0x000005c8:    e8a0500c    ...P    STMCS    r0!,{r2,r3,r12,lr}
        0x000005cc:    f1b10120    .. .    SUBSCS   r1,r1,#0x20
        0x000005d0:    f4bfaff7    ....    BCS.W    0x5c2 ; _memset_w + 10
        0x000005d4:    0709        ..      LSLS     r1,r1,#28
        0x000005d6:    bf28        (.      IT       CS
        0x000005d8:    e8a0500c    ...P    STMCS    r0!,{r2,r3,r12,lr}
        0x000005dc:    bf48        H.      IT       MI
        0x000005de:    c00c        ..      STMMI    r0!,{r2,r3}
        0x000005e0:    f85deb04    ]...    POP      {lr}
        0x000005e4:    0089        ..      LSLS     r1,r1,#2
        0x000005e6:    bf28        (.      IT       CS
        0x000005e8:    f8402b04    @..+    STRCS    r2,[r0],#4
        0x000005ec:    bf08        ..      IT       EQ
        0x000005ee:    4770        pG      BXEQ     lr
        0x000005f0:    bf48        H.      IT       MI
        0x000005f2:    f8202b02     ..+    STRHMI   r2,[r0],#2
        0x000005f6:    f0114f80    ...O    TST      r1,#0x40000000
        0x000005fa:    bf18        ..      IT       NE
        0x000005fc:    f8002b01    ...+    STRBNE   r2,[r0],#1
        0x00000600:    4770        pG      BX       lr
        0x00000602:    0000        ..      MOVS     r0,r0
    .text
    _printf_input_char
        0x00000604:    6901        .i      LDR      r1,[r0,#0x10]
        0x00000606:    1c4a        J.      ADDS     r2,r1,#1
        0x00000608:    6102        .a      STR      r2,[r0,#0x10]
        0x0000060a:    7808        .x      LDRB     r0,[r1,#0]
        0x0000060c:    4770        pG      BX       lr
    _printf_char_common
        0x0000060e:    b500        ..      PUSH     {lr}
        0x00000610:    b08f        ..      SUB      sp,sp,#0x3c
        0x00000612:    e9cd3101    ...1    STRD     r3,r1,[sp,#4]
        0x00000616:    2100        .!      MOVS     r1,#0
        0x00000618:    9105        ..      STR      r1,[sp,#0x14]
        0x0000061a:    4905        .I      LDR      r1,[pc,#20] ; [0x630] = 0xffffffe5
        0x0000061c:    4479        yD      ADD      r1,r1,pc
        0x0000061e:    e9cd1003    ....    STRD     r1,r0,[sp,#0xc]
        0x00000622:    4611        .F      MOV      r1,r2
        0x00000624:    4668        hF      MOV      r0,sp
        0x00000626:    f7fffe7b    ..{.    BL       __printf ; 0x320
        0x0000062a:    b00f        ..      ADD      sp,sp,#0x3c
        0x0000062c:    bd00        ..      POP      {pc}
    $d
        0x0000062e:    0000        ..      DCW    0
        0x00000630:    ffffffe5    ....    DCD    4294967269
    $t
    .text
    __user_setup_stackheap
        0x00000634:    4675        uF      MOV      r5,lr
        0x00000636:    f000f829    ..).    BL       __user_libspace ; 0x68c
        0x0000063a:    46ae        .F      MOV      lr,r5
        0x0000063c:    0005        ..      MOVS     r5,r0
        0x0000063e:    4669        iF      MOV      r1,sp
        0x00000640:    4653        SF      MOV      r3,r10
        0x00000642:    f0200007     ...    BIC      r0,r0,#7
        0x00000646:    4685        .F      MOV      sp,r0
        0x00000648:    b018        ..      ADD      sp,sp,#0x60
        0x0000064a:    b520         .      PUSH     {r5,lr}
        0x0000064c:    f7fffe1a    ....    BL       __user_initial_stackheap ; 0x284
        0x00000650:    e8bd4020    .. @    POP      {r5,lr}
        0x00000654:    f04f0600    O...    MOV      r6,#0
        0x00000658:    f04f0700    O...    MOV      r7,#0
        0x0000065c:    f04f0800    O...    MOV      r8,#0
        0x00000660:    f04f0b00    O...    MOV      r11,#0
        0x00000664:    f0210107    !...    BIC      r1,r1,#7
        0x00000668:    46ac        .F      MOV      r12,r5
        0x0000066a:    e8ac09c0    ....    STM      r12!,{r6-r8,r11}
        0x0000066e:    e8ac09c0    ....    STM      r12!,{r6-r8,r11}
        0x00000672:    e8ac09c0    ....    STM      r12!,{r6-r8,r11}
        0x00000676:    e8ac09c0    ....    STM      r12!,{r6-r8,r11}
        0x0000067a:    468d        .F      MOV      sp,r1
        0x0000067c:    4770        pG      BX       lr
    .text
    exit
        0x0000067e:    4604        .F      MOV      r4,r0
        0x00000680:    f3af8000    ....    NOP.W    
        0x00000684:    4620         F      MOV      r0,r4
        0x00000686:    f7fffda9    ....    BL       __rt_exit ; 0x1dc
        0x0000068a:    0000        ..      MOVS     r0,r0
    .text
    __user_libspace
    __user_perproc_libspace
    __user_perthread_libspace
        0x0000068c:    4800        .H      LDR      r0,[pc,#0] ; [0x690] = 0x20000914
        0x0000068e:    4770        pG      BX       lr
    $d
        0x00000690:    20000914    ...     DCD    536873236
    $t
    i.CLK_DisablePLL
    CLK_DisablePLL
        0x00000694:    f04f4080    O..@    MOV      r0,#0x40000000
        0x00000698:    f8d01240    ..@.    LDR      r1,[r0,#0x240]
        0x0000069c:    f4413180    A..1    ORR      r1,r1,#0x10000
        0x000006a0:    f8c01240    ..@.    STR      r1,[r0,#0x240]
        0x000006a4:    4770        pG      BX       lr
    i.CLK_EnableModuleClock
    CLK_EnableModuleClock
        0x000006a6:    0f81        ..      LSRS     r1,r0,#30
        0x000006a8:    0089        ..      LSLS     r1,r1,#2
        0x000006aa:    f1014180    ...A    ADD      r1,r1,#0x40000000
        0x000006ae:    f8d12204    ..."    LDR      r2,[r1,#0x204]
        0x000006b2:    f000031f    ....    AND      r3,r0,#0x1f
        0x000006b6:    2001        .       MOVS     r0,#1
        0x000006b8:    4098        .@      LSLS     r0,r0,r3
        0x000006ba:    4302        .C      ORRS     r2,r2,r0
        0x000006bc:    f8c12204    ..."    STR      r2,[r1,#0x204]
        0x000006c0:    4770        pG      BX       lr
        0x000006c2:    0000        ..      MOVS     r0,r0
    i.CLK_EnablePLL
    CLK_EnablePLL
        0x000006c4:    e92d4ff8    -..O    PUSH     {r3-r11,lr}
        0x000006c8:    460c        .F      MOV      r4,r1
        0x000006ca:    4606        .F      MOV      r6,r0
        0x000006cc:    f7ffffe2    ....    BL       CLK_DisablePLL ; 0x694
        0x000006d0:    f04f4b80    O..K    MOV      r11,#0x40000000
        0x000006d4:    4f52        RO      LDR      r7,[pc,#328] ; [0x820] = 0xb71b00
        0x000006d6:    f8df814c    ..L.    LDR      r8,[pc,#332] ; [0x824] = 0x1518000
        0x000006da:    f8db1200    ....    LDR      r1,[r11,#0x200]
        0x000006de:    4658        XF      MOV      r0,r11
        0x000006e0:    b19e        ..      CBZ      r6,0x70a ; CLK_EnablePLL + 70
        0x000006e2:    f0410104    A...    ORR      r1,r1,#4
        0x000006e6:    f8c01200    ....    STR      r1,[r0,#0x200]
        0x000006ea:    2010        .       MOVS     r0,#0x10
        0x000006ec:    f000f98c    ....    BL       CLK_WaitClockReady ; 0xa08
        0x000006f0:    f44f2000    O..     MOV      r0,#0x80000
        0x000006f4:    46c1        .F      MOV      r9,r8
        0x000006f6:    2104        .!      MOVS     r1,#4
        0x000006f8:    9000        ..      STR      r0,[sp,#0]
        0x000006fa:    484b        KH      LDR      r0,[pc,#300] ; [0x828] = 0xf1194d7f
        0x000006fc:    4a4b        KJ      LDR      r2,[pc,#300] ; [0x82c] = 0xee6b27f
        0x000006fe:    4420         D      ADD      r0,r0,r4
        0x00000700:    4290        .B      CMP      r0,r2
        0x00000702:    d80e        ..      BHI      0x722 ; CLK_EnablePLL + 94
        0x00000704:    f04f0a00    O...    MOV      r10,#0
        0x00000708:    e01c        ..      B        0x744 ; CLK_EnablePLL + 128
        0x0000070a:    f0410101    A...    ORR      r1,r1,#1
        0x0000070e:    f8c01200    ....    STR      r1,[r0,#0x200]
        0x00000712:    2001        .       MOVS     r0,#1
        0x00000714:    f000f978    ..x.    BL       CLK_WaitClockReady ; 0xa08
        0x00000718:    2000        .       MOVS     r0,#0
        0x0000071a:    46b9        .F      MOV      r9,r7
        0x0000071c:    2102        .!      MOVS     r1,#2
        0x0000071e:    9000        ..      STR      r0,[sp,#0]
        0x00000720:    e7eb        ..      B        0x6fa ; CLK_EnablePLL + 54
        0x00000722:    4843        CH      LDR      r0,[pc,#268] ; [0x830] = 0xf88ca6bf
        0x00000724:    4a43        CJ      LDR      r2,[pc,#268] ; [0x834] = 0x773593f
        0x00000726:    4420         D      ADD      r0,r0,r4
        0x00000728:    4290        .B      CMP      r0,r2
        0x0000072a:    d803        ..      BHI      0x734 ; CLK_EnablePLL + 112
        0x0000072c:    f04f0a01    O...    MOV      r10,#1
        0x00000730:    0064        d.      LSLS     r4,r4,#1
        0x00000732:    e007        ..      B        0x744 ; CLK_EnablePLL + 128
        0x00000734:    4840        @H      LDR      r0,[pc,#256] ; [0x838] = 0xfd050f80
        0x00000736:    4a41        AJ      LDR      r2,[pc,#260] ; [0x83c] = 0x47868c0
        0x00000738:    4420         D      ADD      r0,r0,r4
        0x0000073a:    4290        .B      CMP      r0,r2
        0x0000073c:    d842        B.      BHI      0x7c4 ; CLK_EnablePLL + 256
        0x0000073e:    f04f0a03    O...    MOV      r10,#3
        0x00000742:    00a4        ..      LSLS     r4,r4,#2
        0x00000744:    2500        .%      MOVS     r5,#0
        0x00000746:    f04f32ff    O..2    MOV      r2,#0xffffffff
        0x0000074a:    462f        /F      MOV      r7,r5
        0x0000074c:    e022        ".      B        0x794 ; CLK_EnablePLL + 208
        0x0000074e:    fbb9fcf1    ....    UDIV     r12,r9,r1
        0x00000752:    483b        ;H      LDR      r0,[pc,#236] ; [0x840] = 0xffe795ff
        0x00000754:    4b3b        ;K      LDR      r3,[pc,#236] ; [0x844] = 0xdbb9ff
        0x00000756:    4460        `D      ADD      r0,r0,r12
        0x00000758:    4298        .B      CMP      r0,r3
        0x0000075a:    d21a        ..      BCS      0x792 ; CLK_EnablePLL + 206
        0x0000075c:    f8dfe0e8    ....    LDR      lr,[pc,#232] ; [0x848] = 0xf4143e00
        0x00000760:    f8df80e8    ....    LDR      r8,[pc,#232] ; [0x84c] = 0x11e1a300
        0x00000764:    2602        .&      MOVS     r6,#2
        0x00000766:    fb0cf006    ....    MUL      r0,r12,r6
        0x0000076a:    eb00030e    ....    ADD      r3,r0,lr
        0x0000076e:    4543        CE      CMP      r3,r8
        0x00000770:    d80a        ..      BHI      0x788 ; CLK_EnablePLL + 196
        0x00000772:    42a0        .B      CMP      r0,r4
        0x00000774:    d901        ..      BLS      0x77a ; CLK_EnablePLL + 182
        0x00000776:    1b03        ..      SUBS     r3,r0,r4
        0x00000778:    e000        ..      B        0x77c ; CLK_EnablePLL + 184
        0x0000077a:    1a23        #.      SUBS     r3,r4,r0
        0x0000077c:    4293        .B      CMP      r3,r2
        0x0000077e:    d203        ..      BCS      0x788 ; CLK_EnablePLL + 196
        0x00000780:    001a        ..      MOVS     r2,r3
        0x00000782:    460d        .F      MOV      r5,r1
        0x00000784:    4637        7F      MOV      r7,r6
        0x00000786:    d004        ..      BEQ      0x792 ; CLK_EnablePLL + 206
        0x00000788:    f2402001    @..     MOV      r0,#0x201
        0x0000078c:    1c76        v.      ADDS     r6,r6,#1
        0x0000078e:    4286        .B      CMP      r6,r0
        0x00000790:    d9e9        ..      BLS      0x766 ; CLK_EnablePLL + 162
        0x00000792:    1c49        I.      ADDS     r1,r1,#1
        0x00000794:    2921        !)      CMP      r1,#0x21
        0x00000796:    d9da        ..      BLS      0x74e ; CLK_EnablePLL + 138
        0x00000798:    9800        ..      LDR      r0,[sp,#0]
        0x0000079a:    ea40318a    @..1    ORR      r1,r0,r10,LSL #14
        0x0000079e:    482c        ,H      LDR      r0,[pc,#176] ; [0x850] = 0xfffffc00
        0x000007a0:    eb002045    ..E     ADD      r0,r0,r5,LSL #9
        0x000007a4:    4301        .C      ORRS     r1,r1,r0
        0x000007a6:    1eb8        ..      SUBS     r0,r7,#2
        0x000007a8:    4301        .C      ORRS     r1,r1,r0
        0x000007aa:    f8cb1240    ..@.    STR      r1,[r11,#0x240]
        0x000007ae:    2004        .       MOVS     r0,#4
        0x000007b0:    f000f92a    ..*.    BL       CLK_WaitClockReady ; 0xa08
        0x000007b4:    f10a0001    ....    ADD      r0,r10,#1
        0x000007b8:    4368        hC      MULS     r0,r5,r0
        0x000007ba:    fbb9f0f0    ....    UDIV     r0,r9,r0
        0x000007be:    4378        xC      MULS     r0,r7,r0
        0x000007c0:    e8bd8ff8    ....    POP      {r3-r11,pc}
        0x000007c4:    b17e        ~.      CBZ      r6,0x7e6 ; CLK_EnablePLL + 290
        0x000007c6:    4923        #I      LDR      r1,[pc,#140] ; [0x854] = 0x8c432
        0x000007c8:    f8cb1240    ..@.    STR      r1,[r11,#0x240]
        0x000007cc:    2004        .       MOVS     r0,#4
        0x000007ce:    f000f91b    ....    BL       CLK_WaitClockReady ; 0xa08
        0x000007d2:    a021        !.      ADR      r0,{pc}+0x86 ; 0x858
        0x000007d4:    6800        .h      LDR      r0,[r0,#0]
        0x000007d6:    9000        ..      STR      r0,[sp,#0]
        0x000007d8:    f8db1240    ..@.    LDR      r1,[r11,#0x240]
        0x000007dc:    f4112fa0    .../    TST      r1,#0x50000
        0x000007e0:    d004        ..      BEQ      0x7ec ; CLK_EnablePLL + 296
        0x000007e2:    2000        .       MOVS     r0,#0
        0x000007e4:    e7ec        ..      B        0x7c0 ; CLK_EnablePLL + 252
        0x000007e6:    f24c012e    L...    MOV      r1,#0xc02e
        0x000007ea:    e7ed        ..      B        0x7c8 ; CLK_EnablePLL + 260
        0x000007ec:    0308        ..      LSLS     r0,r1,#12
        0x000007ee:    d501        ..      BPL      0x7f4 ; CLK_EnablePLL + 304
        0x000007f0:    4640        @F      MOV      r0,r8
        0x000007f2:    e000        ..      B        0x7f6 ; CLK_EnablePLL + 306
        0x000007f4:    4638        8F      MOV      r0,r7
        0x000007f6:    038a        ..      LSLS     r2,r1,#14
        0x000007f8:    d4e2        ..      BMI      0x7c0 ; CLK_EnablePLL + 252
        0x000007fa:    f3c10208    ....    UBFX     r2,r1,#0,#9
        0x000007fe:    f3c13381    ...3    UBFX     r3,r1,#14,#2
        0x00000802:    0880        ..      LSRS     r0,r0,#2
        0x00000804:    1c92        ..      ADDS     r2,r2,#2
        0x00000806:    f81d3003    ...0    LDRB     r3,[sp,r3]
        0x0000080a:    f3c12144    ..D!    UBFX     r1,r1,#9,#5
        0x0000080e:    4350        PC      MULS     r0,r2,r0
        0x00000810:    1c89        ..      ADDS     r1,r1,#2
        0x00000812:    fb11f103    ....    SMULBB   r1,r1,r3
        0x00000816:    fbb0f0f1    ....    UDIV     r0,r0,r1
        0x0000081a:    0080        ..      LSLS     r0,r0,#2
        0x0000081c:    e7d0        ..      B        0x7c0 ; CLK_EnablePLL + 252
    $d
        0x0000081e:    0000        ..      DCW    0
        0x00000820:    00b71b00    ....    DCD    12000000
        0x00000824:    01518000    ..Q.    DCD    22118400
        0x00000828:    f1194d7f    .M..    DCD    4044967295
        0x0000082c:    0ee6b27f    ....    DCD    249999999
        0x00000830:    f88ca6bf    ....    DCD    4169967295
        0x00000834:    0773593f    ?Ys.    DCD    124999999
        0x00000838:    fd050f80    ....    DCD    4244967296
        0x0000083c:    047868c0    .hx.    DCD    75000000
        0x00000840:    ffe795ff    ....    DCD    4293367295
        0x00000844:    00dbb9ff    ....    DCD    14399999
        0x00000848:    f4143e00    .>..    DCD    4094967296
        0x0000084c:    11e1a300    ....    DCD    300000000
        0x00000850:    fffffc00    ....    DCD    4294966272
        0x00000854:    0008c432    2...    DCD    574514
        0x00000858:    04020201    ....    DCD    67240449
    $t
    i.CLK_EnableXtalRC
    CLK_EnableXtalRC
        0x0000085c:    f04f4180    O..A    MOV      r1,#0x40000000
        0x00000860:    f8d12200    ..."    LDR      r2,[r1,#0x200]
        0x00000864:    4302        .C      ORRS     r2,r2,r0
        0x00000866:    f8c12200    ..."    STR      r2,[r1,#0x200]
        0x0000086a:    4770        pG      BX       lr
    i.CLK_GetPLLClockFreq
    CLK_GetPLLClockFreq
        0x0000086c:    b508        ..      PUSH     {r3,lr}
        0x0000086e:    a012        ..      ADR      r0,{pc}+0x4a ; 0x8b8
        0x00000870:    6800        .h      LDR      r0,[r0,#0]
        0x00000872:    9000        ..      STR      r0,[sp,#0]
        0x00000874:    f04f4080    O..@    MOV      r0,#0x40000000
        0x00000878:    f8d01240    ..@.    LDR      r1,[r0,#0x240]
        0x0000087c:    f4112fa0    .../    TST      r1,#0x50000
        0x00000880:    d001        ..      BEQ      0x886 ; CLK_GetPLLClockFreq + 26
        0x00000882:    2000        .       MOVS     r0,#0
        0x00000884:    bd08        ..      POP      {r3,pc}
        0x00000886:    0308        ..      LSLS     r0,r1,#12
        0x00000888:    d501        ..      BPL      0x88e ; CLK_GetPLLClockFreq + 34
        0x0000088a:    480c        .H      LDR      r0,[pc,#48] ; [0x8bc] = 0x1518000
        0x0000088c:    e000        ..      B        0x890 ; CLK_GetPLLClockFreq + 36
        0x0000088e:    480c        .H      LDR      r0,[pc,#48] ; [0x8c0] = 0xb71b00
        0x00000890:    038a        ..      LSLS     r2,r1,#14
        0x00000892:    d4f7        ..      BMI      0x884 ; CLK_GetPLLClockFreq + 24
        0x00000894:    f3c10208    ....    UBFX     r2,r1,#0,#9
        0x00000898:    f3c13381    ...3    UBFX     r3,r1,#14,#2
        0x0000089c:    0880        ..      LSRS     r0,r0,#2
        0x0000089e:    1c92        ..      ADDS     r2,r2,#2
        0x000008a0:    f81d3003    ...0    LDRB     r3,[sp,r3]
        0x000008a4:    f3c12144    ..D!    UBFX     r1,r1,#9,#5
        0x000008a8:    4350        PC      MULS     r0,r2,r0
        0x000008aa:    1c89        ..      ADDS     r1,r1,#2
        0x000008ac:    fb11f103    ....    SMULBB   r1,r1,r3
        0x000008b0:    fbb0f0f1    ....    UDIV     r0,r0,r1
        0x000008b4:    0080        ..      LSLS     r0,r0,#2
        0x000008b6:    bd08        ..      POP      {r3,pc}
    $d
        0x000008b8:    04020201    ....    DCD    67240449
        0x000008bc:    01518000    ..Q.    DCD    22118400
        0x000008c0:    00b71b00    ....    DCD    12000000
    $t
    i.CLK_SetCoreClock
    CLK_SetCoreClock
        0x000008c4:    b570        p.      PUSH     {r4-r6,lr}
        0x000008c6:    f04f4580    O..E    MOV      r5,#0x40000000
        0x000008ca:    4604        .F      MOV      r4,r0
        0x000008cc:    f8d50250    ..P.    LDR      r0,[r5,#0x250]
        0x000008d0:    f0000610    ....    AND      r6,r0,#0x10
        0x000008d4:    481d        .H      LDR      r0,[pc,#116] ; [0x94c] = 0x44aa200
        0x000008d6:    4284        .B      CMP      r4,r0
        0x000008d8:    d802        ..      BHI      0x8e0 ; CLK_SetCoreClock + 28
        0x000008da:    481d        .H      LDR      r0,[pc,#116] ; [0x950] = 0x17d7840
        0x000008dc:    4284        .B      CMP      r4,r0
        0x000008de:    d200        ..      BCS      0x8e2 ; CLK_SetCoreClock + 30
        0x000008e0:    4604        .F      MOV      r4,r0
        0x000008e2:    f8d50200    ....    LDR      r0,[r5,#0x200]
        0x000008e6:    f0400004    @...    ORR      r0,r0,#4
        0x000008ea:    f8c50200    ....    STR      r0,[r5,#0x200]
        0x000008ee:    2010        .       MOVS     r0,#0x10
        0x000008f0:    f5057500    ...u    ADD      r5,r5,#0x200
        0x000008f4:    f000f888    ....    BL       CLK_WaitClockReady ; 0xa08
        0x000008f8:    6928        (i      LDR      r0,[r5,#0x10]
        0x000008fa:    f0400007    @...    ORR      r0,r0,#7
        0x000008fe:    6128        (a      STR      r0,[r5,#0x10]
        0x00000900:    6a28        (j      LDR      r0,[r5,#0x20]
        0x00000902:    f020000f     ...    BIC      r0,r0,#0xf
        0x00000906:    6228        (b      STR      r0,[r5,#0x20]
        0x00000908:    6828        (h      LDR      r0,[r5,#0]
        0x0000090a:    f5a57500    ...u    SUB      r5,r5,#0x200
        0x0000090e:    07c0        ..      LSLS     r0,r0,#31
        0x00000910:    ea4f0144    O.D.    LSL      r1,r4,#1
        0x00000914:    d004        ..      BEQ      0x920 ; CLK_SetCoreClock + 92
        0x00000916:    2000        .       MOVS     r0,#0
        0x00000918:    f7fffed4    ....    BL       CLK_EnablePLL ; 0x6c4
        0x0000091c:    4604        .F      MOV      r4,r0
        0x0000091e:    e008        ..      B        0x932 ; CLK_SetCoreClock + 110
        0x00000920:    f44f2000    O..     MOV      r0,#0x80000
        0x00000924:    f7fffece    ....    BL       CLK_EnablePLL ; 0x6c4
        0x00000928:    4604        .F      MOV      r4,r0
        0x0000092a:    f8d50250    ..P.    LDR      r0,[r5,#0x250]
        0x0000092e:    f0000610    ....    AND      r6,r0,#0x10
        0x00000932:    2101        .!      MOVS     r1,#1
        0x00000934:    2002        .       MOVS     r0,#2
        0x00000936:    f000f80d    ....    BL       CLK_SetHCLK ; 0x954
        0x0000093a:    b92e        ..      CBNZ     r6,0x948 ; CLK_SetCoreClock + 132
        0x0000093c:    f8d50200    ....    LDR      r0,[r5,#0x200]
        0x00000940:    f0200004     ...    BIC      r0,r0,#4
        0x00000944:    f8c50200    ....    STR      r0,[r5,#0x200]
        0x00000948:    0860        `.      LSRS     r0,r4,#1
        0x0000094a:    bd70        p.      POP      {r4-r6,pc}
    $d
        0x0000094c:    044aa200    ..J.    DCD    72000000
        0x00000950:    017d7840    @x}.    DCD    25000000
    $t
    i.CLK_SetHCLK
    CLK_SetHCLK
        0x00000954:    e92d41f0    -..A    PUSH     {r4-r8,lr}
        0x00000958:    f04f4480    O..D    MOV      r4,#0x40000000
        0x0000095c:    4607        .F      MOV      r7,r0
        0x0000095e:    f8d40250    ..P.    LDR      r0,[r4,#0x250]
        0x00000962:    460e        .F      MOV      r6,r1
        0x00000964:    f0000510    ....    AND      r5,r0,#0x10
        0x00000968:    f8d40200    ....    LDR      r0,[r4,#0x200]
        0x0000096c:    f0400004    @...    ORR      r0,r0,#4
        0x00000970:    f8c40200    ....    STR      r0,[r4,#0x200]
        0x00000974:    2010        .       MOVS     r0,#0x10
        0x00000976:    f5047400    ...t    ADD      r4,r4,#0x200
        0x0000097a:    f000f845    ..E.    BL       CLK_WaitClockReady ; 0xa08
        0x0000097e:    6920         i      LDR      r0,[r4,#0x10]
        0x00000980:    f0400007    @...    ORR      r0,r0,#7
        0x00000984:    6120         a      STR      r0,[r4,#0x10]
        0x00000986:    6a20         j      LDR      r0,[r4,#0x20]
        0x00000988:    f020000f     ...    BIC      r0,r0,#0xf
        0x0000098c:    4330        0C      ORRS     r0,r0,r6
        0x0000098e:    6220         b      STR      r0,[r4,#0x20]
        0x00000990:    6920         i      LDR      r0,[r4,#0x10]
        0x00000992:    f0200007     ...    BIC      r0,r0,#7
        0x00000996:    4338        8C      ORRS     r0,r0,r7
        0x00000998:    6120         a      STR      r0,[r4,#0x10]
        0x0000099a:    f5a47400    ...t    SUB      r4,r4,#0x200
        0x0000099e:    f000fac5    ....    BL       SystemCoreClockUpdate ; 0xf2c
        0x000009a2:    2d00        .-      CMP      r5,#0
        0x000009a4:    d105        ..      BNE      0x9b2 ; CLK_SetHCLK + 94
        0x000009a6:    f8d40200    ....    LDR      r0,[r4,#0x200]
        0x000009aa:    f0200004     ...    BIC      r0,r0,#4
        0x000009ae:    f8c40200    ....    STR      r0,[r4,#0x200]
        0x000009b2:    e8bd81f0    ....    POP      {r4-r8,pc}
        0x000009b6:    0000        ..      MOVS     r0,r0
    i.CLK_SetModuleClock
    CLK_SetModuleClock
        0x000009b8:    b570        p.      PUSH     {r4-r6,lr}
        0x000009ba:    f4103f7f    ...?    TST      r0,#0x3fc00
        0x000009be:    d00d        ..      BEQ      0x9dc ; CLK_SetModuleClock + 36
        0x000009c0:    4c10        .L      LDR      r4,[pc,#64] ; [0xa04] = 0x40000220
        0x000009c2:    f3c04381    ...C    UBFX     r3,r0,#18,#2
        0x000009c6:    eb040383    ....    ADD      r3,r4,r3,LSL #2
        0x000009ca:    681c        .h      LDR      r4,[r3,#0]
        0x000009cc:    f3c02587    ...%    UBFX     r5,r0,#10,#8
        0x000009d0:    f3c01644    ..D.    UBFX     r6,r0,#5,#5
        0x000009d4:    40b5        .@      LSLS     r5,r5,r6
        0x000009d6:    43ac        .C      BICS     r4,r4,r5
        0x000009d8:    4314        .C      ORRS     r4,r4,r2
        0x000009da:    601c        .`      STR      r4,[r3,#0]
        0x000009dc:    0e42        B.      LSRS     r2,r0,#25
        0x000009de:    0752        R.      LSLS     r2,r2,#29
        0x000009e0:    d00e        ..      BEQ      0xa00 ; CLK_SetModuleClock + 72
        0x000009e2:    4b08        .K      LDR      r3,[pc,#32] ; [0xa04] = 0x40000220
        0x000009e4:    f3c07201    ...r    UBFX     r2,r0,#28,#2
        0x000009e8:    3b10        .;      SUBS     r3,r3,#0x10
        0x000009ea:    eb030282    ....    ADD      r2,r3,r2,LSL #2
        0x000009ee:    6813        .h      LDR      r3,[r2,#0]
        0x000009f0:    f3c06442    ..Bd    UBFX     r4,r0,#25,#3
        0x000009f4:    f3c05004    ...P    UBFX     r0,r0,#20,#5
        0x000009f8:    4084        .@      LSLS     r4,r4,r0
        0x000009fa:    43a3        .C      BICS     r3,r3,r4
        0x000009fc:    430b        .C      ORRS     r3,r3,r1
        0x000009fe:    6013        .`      STR      r3,[r2,#0]
        0x00000a00:    bd70        p.      POP      {r4-r6,pc}
    $d
        0x00000a02:    0000        ..      DCW    0
        0x00000a04:    40000220     ..@    DCD    1073742368
    $t
    i.CLK_WaitClockReady
    CLK_WaitClockReady
        0x00000a08:    b510        ..      PUSH     {r4,lr}
        0x00000a0a:    4604        .F      MOV      r4,r0
        0x00000a0c:    4908        .I      LDR      r1,[pc,#32] ; [0xa30] = 0x20f580
        0x00000a0e:    f04f4280    O..B    MOV      r2,#0x40000000
        0x00000a12:    e005        ..      B        0xa20 ; CLK_WaitClockReady + 24
        0x00000a14:    1e0b        ..      SUBS     r3,r1,#0
        0x00000a16:    f1a10101    ....    SUB      r1,r1,#1
        0x00000a1a:    dc01        ..      BGT      0xa20 ; CLK_WaitClockReady + 24
        0x00000a1c:    2000        .       MOVS     r0,#0
        0x00000a1e:    bd10        ..      POP      {r4,pc}
        0x00000a20:    f8d23250    ..P2    LDR      r3,[r2,#0x250]
        0x00000a24:    ea340003    4...    BICS     r0,r4,r3
        0x00000a28:    d1f4        ..      BNE      0xa14 ; CLK_WaitClockReady + 12
        0x00000a2a:    2001        .       MOVS     r0,#1
        0x00000a2c:    bd10        ..      POP      {r4,pc}
    $d
        0x00000a2e:    0000        ..      DCW    0
        0x00000a30:    0020f580    .. .    DCD    2160000
    $t
    i.FMC_Open
    FMC_Open
        0x00000a34:    4802        .H      LDR      r0,[pc,#8] ; [0xa40] = 0x4000c000
        0x00000a36:    6801        .h      LDR      r1,[r0,#0]
        0x00000a38:    f0410101    A...    ORR      r1,r1,#1
        0x00000a3c:    6001        .`      STR      r1,[r0,#0]
        0x00000a3e:    4770        pG      BX       lr
    $d
        0x00000a40:    4000c000    ...@    DCD    1073790976
    $t
    i.FMC_Read
    FMC_Read
        0x00000a44:    4905        .I      LDR      r1,[pc,#20] ; [0xa5c] = 0x4000c000
        0x00000a46:    2200        ."      MOVS     r2,#0
        0x00000a48:    60ca        .`      STR      r2,[r1,#0xc]
        0x00000a4a:    6048        H`      STR      r0,[r1,#4]
        0x00000a4c:    608a        .`      STR      r2,[r1,#8]
        0x00000a4e:    2001        .       MOVS     r0,#1
        0x00000a50:    6108        .a      STR      r0,[r1,#0x10]
        0x00000a52:    6908        .i      LDR      r0,[r1,#0x10]
        0x00000a54:    2800        .(      CMP      r0,#0
        0x00000a56:    d1fc        ..      BNE      0xa52 ; FMC_Read + 14
        0x00000a58:    6888        .h      LDR      r0,[r1,#8]
        0x00000a5a:    4770        pG      BX       lr
    $d
        0x00000a5c:    4000c000    ...@    DCD    1073790976
    $t
    i.FMC_ReadConfig
    FMC_ReadConfig
        0x00000a60:    e92d41f0    -..A    PUSH     {r4-r8,lr}
        0x00000a64:    460d        .F      MOV      r5,r1
        0x00000a66:    4606        .F      MOV      r6,r0
        0x00000a68:    2400        .$      MOVS     r4,#0
        0x00000a6a:    f44f1740    O.@.    MOV      r7,#0x300000
        0x00000a6e:    e006        ..      B        0xa7e ; FMC_ReadConfig + 30
        0x00000a70:    eb070084    ....    ADD      r0,r7,r4,LSL #2
        0x00000a74:    f7ffffe6    ....    BL       FMC_Read ; 0xa44
        0x00000a78:    f8460024    F.$.    STR      r0,[r6,r4,LSL #2]
        0x00000a7c:    1c64        d.      ADDS     r4,r4,#1
        0x00000a7e:    42ac        .B      CMP      r4,r5
        0x00000a80:    d3f6        ..      BCC      0xa70 ; FMC_ReadConfig + 16
        0x00000a82:    2000        .       MOVS     r0,#0
        0x00000a84:    e8bd81f0    ....    POP      {r4-r8,pc}
    i.Hard_Fault_Handler
    Hard_Fault_Handler
    __tagsym$$used
        0x00000a88:    4604        .F      MOV      r4,r0
        0x00000a8a:    a003        ..      ADR      r0,{pc}+0xe ; 0xa98
        0x00000a8c:    f7fffc10    ....    BL       __2printf ; 0x2b0
        0x00000a90:    4620         F      MOV      r0,r4
        0x00000a92:    f001f967    ..g.    BL       stackDump ; 0x1d64
        0x00000a96:    e7fe        ..      B        0xa96 ; Hard_Fault_Handler + 14
    $d
        0x00000a98:    48206e49    In H    DCD    1210084937
        0x00000a9c:    20647261    ard     DCD    543453793
        0x00000aa0:    6c756146    Faul    DCD    1819631942
        0x00000aa4:    61482074    t Ha    DCD    1632116852
        0x00000aa8:    656c646e    ndle    DCD    1701602414
        0x00000aac:    00000a72    r...    DCD    2674
    $t
    i.IsDebugFifoEmpty
    IsDebugFifoEmpty
        0x00000ab0:    4802        .H      LDR      r0,[pc,#8] ; [0xabc] = 0x40070000
        0x00000ab2:    6980        .i      LDR      r0,[r0,#0x18]
        0x00000ab4:    f3c07000    ...p    UBFX     r0,r0,#28,#1
        0x00000ab8:    4770        pG      BX       lr
    $d
        0x00000aba:    0000        ..      DCW    0
        0x00000abc:    40070000    ...@    DCD    1074200576
    $t
    i.OneSramByte
    OneSramByte
        0x00000ac0:    a101        ..      ADR      r1,{pc}+8 ; 0xac8
        0x00000ac2:    5c08        .\      LDRB     r0,[r1,r0]
        0x00000ac4:    4770        pG      BX       lr
    $d
        0x00000ac6:    0000        ..      DCW    0
        0x00000ac8:    6c6c6568    hell    DCD    1819043176
        0x00000acc:    6f77206f    o wo    DCD    1870078063
        0x00000ad0:    00646c72    rld.    DCD    6581362
    $t
    i.RZ_AckBibi
    RZ_AckBibi
        0x00000ad4:    b570        p.      PUSH     {r4-r6,lr}
        0x00000ad6:    2000        .       MOVS     r0,#0
        0x00000ad8:    f000fee2    ....    BL       Z_PutLongIntoHeader ; 0x18a0
        0x00000adc:    2404        .$      MOVS     r4,#4
        0x00000ade:    4e0c        .N      LDR      r6,[pc,#48] ; [0xb10] = 0x20000034
        0x00000ae0:    f44f757a    O.zu    MOV      r5,#0x3e8
        0x00000ae4:    e010        ..      B        0xb08 ; RZ_AckBibi + 52
        0x00000ae6:    490a        .I      LDR      r1,[pc,#40] ; [0xb10] = 0x20000034
        0x00000ae8:    2008        .       MOVS     r0,#8
        0x00000aea:    3124        $1      ADDS     r1,r1,#0x24
        0x00000aec:    f000fee4    ....    BL       Z_SendHexHeader ; 0x18b8
        0x00000af0:    4628        (F      MOV      r0,r5
        0x00000af2:    f001f8ed    ....    BL       readline ; 0x1cd0
        0x00000af6:    b2c1        ..      UXTB     r1,r0
        0x00000af8:    7830        0x      LDRB     r0,[r6,#0]
        0x00000afa:    2800        .(      CMP      r0,#0
        0x00000afc:    d106        ..      BNE      0xb0c ; RZ_AckBibi + 56
        0x00000afe:    294f        O)      CMP      r1,#0x4f
        0x00000b00:    d102        ..      BNE      0xb08 ; RZ_AckBibi + 52
        0x00000b02:    4628        (F      MOV      r0,r5
        0x00000b04:    f001f8e4    ....    BL       readline ; 0x1cd0
        0x00000b08:    1e64        d.      SUBS     r4,r4,#1
        0x00000b0a:    d1ec        ..      BNE      0xae6 ; RZ_AckBibi + 18
        0x00000b0c:    bd70        p.      POP      {r4-r6,pc}
    $d
        0x00000b0e:    0000        ..      DCW    0
        0x00000b10:    20000034    4..     DCD    536870964
    $t
    i.RZ_InitReceiver
    RZ_InitReceiver
        0x00000b14:    e92d5ff0    -.._    PUSH     {r4-r12,lr}
        0x00000b18:    f8df90f0    ....    LDR      r9,[pc,#240] ; [0xc0c] = 0x20000058
        0x00000b1c:    2500        .%      MOVS     r5,#0
        0x00000b1e:    2603        .&      MOVS     r6,#3
        0x00000b20:    f04f3bff    O..;    MOV      r11,#0xffffffff
        0x00000b24:    2401        .$      MOVS     r4,#1
        0x00000b26:    f1a90824    ..$.    SUB      r8,r9,#0x24
        0x00000b2a:    f44f5a00    O..Z    MOV      r10,#0x2000
        0x00000b2e:    f240176b    @.k.    MOV      r7,#0x16b
        0x00000b32:    e021        !.      B        0xb78 ; RZ_InitReceiver + 100
        0x00000b34:    2000        .       MOVS     r0,#0
        0x00000b36:    f000feb3    ....    BL       Z_PutLongIntoHeader ; 0x18a0
        0x00000b3a:    f8894003    ...@    STRB     r4,[r9,#3]
        0x00000b3e:    f8980018    ....    LDRB     r0,[r8,#0x18]
        0x00000b42:    4932        2I      LDR      r1,[pc,#200] ; [0xc0c] = 0x20000058
        0x00000b44:    e040        @.      B        0xbc8 ; RZ_InitReceiver + 180
        0x00000b46:    4831        1H      LDR      r0,[pc,#196] ; [0xc0c] = 0x20000058
        0x00000b48:    1f00        ..      SUBS     r0,r0,#4
        0x00000b4a:    f000fdf7    ....    BL       Z_GetHeader ; 0x173c
        0x00000b4e:    2808        .(      CMP      r0,#8
        0x00000b50:    d057        W.      BEQ      0xc02 ; RZ_InitReceiver + 238
        0x00000b52:    dc09        ..      BGT      0xb68 ; RZ_InitReceiver + 84
        0x00000b54:    f1000003    ....    ADD      r0,r0,#3
        0x00000b58:    2808        .(      CMP      r0,#8
        0x00000b5a:    d20d        ..      BCS      0xb78 ; RZ_InitReceiver + 100
        0x00000b5c:    e8dff000    ....    TBB      [pc,r0]
    $d
        0x00000b60:    110c0e0e    ....    DCD    286002702
        0x00000b64:    190c2b0c    .+..    DCD    420227852
    $t
        0x00000b68:    280f        .(      CMP      r0,#0xf
        0x00000b6a:    d0ec        ..      BEQ      0xb46 ; RZ_InitReceiver + 50
        0x00000b6c:    2810        .(      CMP      r0,#0x10
        0x00000b6e:    d005        ..      BEQ      0xb7c ; RZ_InitReceiver + 104
        0x00000b70:    2811        .(      CMP      r0,#0x11
        0x00000b72:    d02c        ,.      BEQ      0xbce ; RZ_InitReceiver + 186
        0x00000b74:    2812        .(      CMP      r0,#0x12
        0x00000b76:    d02e        ..      BEQ      0xbd6 ; RZ_InitReceiver + 194
        0x00000b78:    1e76        v.      SUBS     r6,r6,#1
        0x00000b7a:    d5db        ..      BPL      0xb34 ; RZ_InitReceiver + 32
        0x00000b7c:    4658        XF      MOV      r0,r11
        0x00000b7e:    e8bd9ff0    ....    POP      {r4-r12,pc}
        0x00000b82:    2000        .       MOVS     r0,#0
        0x00000b84:    f000fe8c    ....    BL       Z_PutLongIntoHeader ; 0x18a0
        0x00000b88:    f8894003    ...@    STRB     r4,[r9,#3]
        0x00000b8c:    491f        .I      LDR      r1,[pc,#124] ; [0xc0c] = 0x20000058
        0x00000b8e:    2001        .       MOVS     r0,#1
        0x00000b90:    e01a        ..      B        0xbc8 ; RZ_InitReceiver + 180
        0x00000b92:    481e        .H      LDR      r0,[pc,#120] ; [0xc0c] = 0x20000058
        0x00000b94:    1f00        ..      SUBS     r0,r0,#4
        0x00000b96:    78c1        .x      LDRB     r1,[r0,#3]
        0x00000b98:    f8881002    ....    STRB     r1,[r8,#2]
        0x00000b9c:    4651        QF      MOV      r1,r10
        0x00000b9e:    481c        .H      LDR      r0,[pc,#112] ; [0xc10] = 0x200008b1
        0x00000ba0:    f8c84018    ...@    STR      r4,[r8,#0x18]
        0x00000ba4:    f000f84a    ..J.    BL       RZ_ReceiveData ; 0xc3c
        0x00000ba8:    42b8        .B      CMP      r0,r7
        0x00000baa:    d101        ..      BNE      0xbb0 ; RZ_InitReceiver + 156
        0x00000bac:    2004        .       MOVS     r0,#4
        0x00000bae:    e7e6        ..      B        0xb7e ; RZ_InitReceiver + 106
        0x00000bb0:    4916        .I      LDR      r1,[pc,#88] ; [0xc0c] = 0x20000058
        0x00000bb2:    2006        .       MOVS     r0,#6
        0x00000bb4:    e008        ..      B        0xbc8 ; RZ_InitReceiver + 180
        0x00000bb6:    4816        .H      LDR      r0,[pc,#88] ; [0xc10] = 0x200008b1
        0x00000bb8:    2120         !      MOVS     r1,#0x20
        0x00000bba:    3821        !8      SUBS     r0,r0,#0x21
        0x00000bbc:    f000f83e    ..>.    BL       RZ_ReceiveData ; 0xc3c
        0x00000bc0:    42b8        .B      CMP      r0,r7
        0x00000bc2:    d1f5        ..      BNE      0xbb0 ; RZ_InitReceiver + 156
        0x00000bc4:    4911        .I      LDR      r1,[pc,#68] ; [0xc0c] = 0x20000058
        0x00000bc6:    2003        .       MOVS     r0,#3
        0x00000bc8:    f000fe76    ..v.    BL       Z_SendHexHeader ; 0x18b8
        0x00000bcc:    e7bb        ..      B        0xb46 ; RZ_InitReceiver + 50
        0x00000bce:    4650        PF      MOV      r0,r10
        0x00000bd0:    f000fe66    ..f.    BL       Z_PutLongIntoHeader ; 0x18a0
        0x00000bd4:    e7f6        ..      B        0xbc4 ; RZ_InitReceiver + 176
        0x00000bd6:    4651        QF      MOV      r1,r10
        0x00000bd8:    480d        .H      LDR      r0,[pc,#52] ; [0xc10] = 0x200008b1
        0x00000bda:    f000f82f    ../.    BL       RZ_ReceiveData ; 0xc3c
        0x00000bde:    42b8        .B      CMP      r0,r7
        0x00000be0:    d1e6        ..      BNE      0xbb0 ; RZ_InitReceiver + 156
        0x00000be2:    2000        .       MOVS     r0,#0
        0x00000be4:    f000fe5c    ..\.    BL       Z_PutLongIntoHeader ; 0x18a0
        0x00000be8:    4908        .I      LDR      r1,[pc,#32] ; [0xc0c] = 0x20000058
        0x00000bea:    200f        .       MOVS     r0,#0xf
        0x00000bec:    f000fe64    ..d.    BL       Z_SendHexHeader ; 0x18b8
        0x00000bf0:    1c6d        m.      ADDS     r5,r5,#1
        0x00000bf2:    2d0a        .-      CMP      r5,#0xa
        0x00000bf4:    da05        ..      BGE      0xc02 ; RZ_InitReceiver + 238
        0x00000bf6:    4805        .H      LDR      r0,[pc,#20] ; [0xc0c] = 0x20000058
        0x00000bf8:    1f00        ..      SUBS     r0,r0,#4
        0x00000bfa:    f000fd9f    ....    BL       Z_GetHeader ; 0x173c
        0x00000bfe:    2808        .(      CMP      r0,#8
        0x00000c00:    d1f2        ..      BNE      0xbe8 ; RZ_InitReceiver + 212
        0x00000c02:    f7ffff67    ..g.    BL       RZ_AckBibi ; 0xad4
        0x00000c06:    200f        .       MOVS     r0,#0xf
        0x00000c08:    e7b9        ..      B        0xb7e ; RZ_InitReceiver + 106
    $d
        0x00000c0a:    0000        ..      DCW    0
        0x00000c0c:    20000058    X..     DCD    536871000
        0x00000c10:    200008b1    ...     DCD    536873137
    $t
    i.RZ_ReceiveBatch
    RZ_ReceiveBatch
        0x00000c14:    b510        ..      PUSH     {r4,lr}
        0x00000c16:    4604        .F      MOV      r4,r0
        0x00000c18:    4620         F      MOV      r0,r4
        0x00000c1a:    f000f85f    .._.    BL       RZ_ReceiveFile ; 0xcdc
        0x00000c1e:    2805        .(      CMP      r0,#5
        0x00000c20:    d001        ..      BEQ      0xc26 ; RZ_ReceiveBatch + 18
        0x00000c22:    280b        .(      CMP      r0,#0xb
        0x00000c24:    d107        ..      BNE      0xc36 ; RZ_ReceiveBatch + 34
        0x00000c26:    f7ffff75    ..u.    BL       RZ_InitReceiver ; 0xb14
        0x00000c2a:    2804        .(      CMP      r0,#4
        0x00000c2c:    d0f4        ..      BEQ      0xc18 ; RZ_ReceiveBatch + 4
        0x00000c2e:    280f        .(      CMP      r0,#0xf
        0x00000c30:    d002        ..      BEQ      0xc38 ; RZ_ReceiveBatch + 36
        0x00000c32:    f04f30ff    O..0    MOV      r0,#0xffffffff
        0x00000c36:    bd10        ..      POP      {r4,pc}
        0x00000c38:    2000        .       MOVS     r0,#0
        0x00000c3a:    bd10        ..      POP      {r4,pc}
    i.RZ_ReceiveData
    RZ_ReceiveData
        0x00000c3c:    e92d41f0    -..A    PUSH     {r4-r8,lr}
        0x00000c40:    4e25        %N      LDR      r6,[pc,#148] ; [0xcd8] = 0x20000034
        0x00000c42:    2700        .'      MOVS     r7,#0
        0x00000c44:    460d        .F      MOV      r5,r1
        0x00000c46:    4604        .F      MOV      r4,r0
        0x00000c48:    f04f38ff    O..8    MOV      r8,#0xffffffff
        0x00000c4c:    61f7        .a      STR      r7,[r6,#0x1c]
        0x00000c4e:    f000fdd7    ....    BL       Z_GetZDL ; 0x1800
        0x00000c52:    0a01        ..      LSRS     r1,r0,#8
        0x00000c54:    d032        2.      BEQ      0xcbc ; RZ_ReceiveData + 128
        0x00000c56:    f44f74b4    O..t    MOV      r4,#0x168
        0x00000c5a:    42a0        .B      CMP      r0,r4
        0x00000c5c:    d014        ..      BEQ      0xc88 ; RZ_ReceiveData + 76
        0x00000c5e:    dc0b        ..      BGT      0xc78 ; RZ_ReceiveData + 60
        0x00000c60:    f1100f03    ....    CMN      r0,#3
        0x00000c64:    d006        ..      BEQ      0xc74 ; RZ_ReceiveData + 56
        0x00000c66:    f1100f02    ....    CMN      r0,#2
        0x00000c6a:    d003        ..      BEQ      0xc74 ; RZ_ReceiveData + 56
        0x00000c6c:    f5b07f8c    ....    CMP      r0,#0x118
        0x00000c70:    d100        ..      BNE      0xc74 ; RZ_ReceiveData + 56
        0x00000c72:    2010        .       MOVS     r0,#0x10
        0x00000c74:    e8bd81f0    ....    POP      {r4-r8,pc}
        0x00000c78:    f5a07180    ...q    SUB      r1,r0,#0x100
        0x00000c7c:    3969        i9      SUBS     r1,r1,#0x69
        0x00000c7e:    d003        ..      BEQ      0xc88 ; RZ_ReceiveData + 76
        0x00000c80:    2901        .)      CMP      r1,#1
        0x00000c82:    d001        ..      BEQ      0xc88 ; RZ_ReceiveData + 76
        0x00000c84:    2902        .)      CMP      r1,#2
        0x00000c86:    d1f5        ..      BNE      0xc74 ; RZ_ReceiveData + 56
        0x00000c88:    4605        .F      MOV      r5,r0
        0x00000c8a:    b2c0        ..      UXTB     r0,r0
        0x00000c8c:    4639        9F      MOV      r1,r7
        0x00000c8e:    f000fe7f    ....    BL       Z_UpdateCRC ; 0x1990
        0x00000c92:    4607        .F      MOV      r7,r0
        0x00000c94:    f000fdb4    ....    BL       Z_GetZDL ; 0x1800
        0x00000c98:    0a01        ..      LSRS     r1,r0,#8
        0x00000c9a:    d1de        ..      BNE      0xc5a ; RZ_ReceiveData + 30
        0x00000c9c:    4639        9F      MOV      r1,r7
        0x00000c9e:    f000fe77    ..w.    BL       Z_UpdateCRC ; 0x1990
        0x00000ca2:    4607        .F      MOV      r7,r0
        0x00000ca4:    f000fdac    ....    BL       Z_GetZDL ; 0x1800
        0x00000ca8:    0a01        ..      LSRS     r1,r0,#8
        0x00000caa:    d1d6        ..      BNE      0xc5a ; RZ_ReceiveData + 30
        0x00000cac:    4639        9F      MOV      r1,r7
        0x00000cae:    f000fe6f    ..o.    BL       Z_UpdateCRC ; 0x1990
        0x00000cb2:    0400        ..      LSLS     r0,r0,#16
        0x00000cb4:    0c00        ..      LSRS     r0,r0,#16
        0x00000cb6:    d103        ..      BNE      0xcc0 ; RZ_ReceiveData + 132
        0x00000cb8:    4628        (F      MOV      r0,r5
        0x00000cba:    e7db        ..      B        0xc74 ; RZ_ReceiveData + 56
        0x00000cbc:    1e6d        m.      SUBS     r5,r5,#1
        0x00000cbe:    d501        ..      BPL      0xcc4 ; RZ_ReceiveData + 136
        0x00000cc0:    4640        @F      MOV      r0,r8
        0x00000cc2:    e7d7        ..      B        0xc74 ; RZ_ReceiveData + 56
        0x00000cc4:    69f1        .i      LDR      r1,[r6,#0x1c]
        0x00000cc6:    1c49        I.      ADDS     r1,r1,#1
        0x00000cc8:    61f1        .a      STR      r1,[r6,#0x1c]
        0x00000cca:    f8040b01    ....    STRB     r0,[r4],#1
        0x00000cce:    4639        9F      MOV      r1,r7
        0x00000cd0:    f000fe5e    ..^.    BL       Z_UpdateCRC ; 0x1990
        0x00000cd4:    4607        .F      MOV      r7,r0
        0x00000cd6:    e7ba        ..      B        0xc4e ; RZ_ReceiveData + 18
    $d
        0x00000cd8:    20000034    4..     DCD    536870964
    $t
    i.RZ_ReceiveFile
    RZ_ReceiveFile
        0x00000cdc:    e92d47f0    -..G    PUSH     {r4-r10,lr}
        0x00000ce0:    4d41        AM      LDR      r5,[pc,#260] ; [0xde8] = 0x20000034
        0x00000ce2:    240a        .$      MOVS     r4,#0xa
        0x00000ce4:    2000        .       MOVS     r0,#0
        0x00000ce6:    f06f0901    o...    MVN      r9,#1
        0x00000cea:    f04f38ff    O..8    MOV      r8,#0xffffffff
        0x00000cee:    f44f5700    O..W    MOV      r7,#0x2000
        0x00000cf2:    62e8        .b      STR      r0,[r5,#0x2c]
        0x00000cf4:    6ae8        .j      LDR      r0,[r5,#0x2c]
        0x00000cf6:    f000fdd3    ....    BL       Z_PutLongIntoHeader ; 0x18a0
        0x00000cfa:    493b        ;I      LDR      r1,[pc,#236] ; [0xde8] = 0x20000034
        0x00000cfc:    3124        $1      ADDS     r1,r1,#0x24
        0x00000cfe:    2009        .       MOVS     r0,#9
        0x00000d00:    e045        E.      B        0xd8e ; RZ_ReceiveFile + 178
        0x00000d02:    4839        9H      LDR      r0,[pc,#228] ; [0xde8] = 0x20000034
        0x00000d04:    3020         0      ADDS     r0,r0,#0x20
        0x00000d06:    f000fd19    ....    BL       Z_GetHeader ; 0x173c
        0x00000d0a:    2806        .(      CMP      r0,#6
        0x00000d0c:    d02d        -.      BEQ      0xd6a ; RZ_ReceiveFile + 142
        0x00000d0e:    dc06        ..      BGT      0xd1e ; RZ_ReceiveFile + 66
        0x00000d10:    4548        HE      CMP      r0,r9
        0x00000d12:    d02a        *.      BEQ      0xd6a ; RZ_ReceiveFile + 142
        0x00000d14:    4540        @E      CMP      r0,r8
        0x00000d16:    d028        (.      BEQ      0xd6a ; RZ_ReceiveFile + 142
        0x00000d18:    2804        .(      CMP      r0,#4
        0x00000d1a:    d128        (.      BNE      0xd6e ; RZ_ReceiveFile + 146
        0x00000d1c:    e05a        Z.      B        0xdd4 ; RZ_ReceiveFile + 248
        0x00000d1e:    280a        .(      CMP      r0,#0xa
        0x00000d20:    d002        ..      BEQ      0xd28 ; RZ_ReceiveFile + 76
        0x00000d22:    280b        .(      CMP      r0,#0xb
        0x00000d24:    d123        #.      BNE      0xd6e ; RZ_ReceiveFile + 146
        0x00000d26:    e05a        Z.      B        0xdde ; RZ_ReceiveFile + 258
        0x00000d28:    e9d5010a    ....    LDRD     r0,r1,[r5,#0x28]
        0x00000d2c:    4288        .B      CMP      r0,r1
        0x00000d2e:    d11c        ..      BNE      0xd6a ; RZ_ReceiveFile + 142
        0x00000d30:    f44f76b4    O..v    MOV      r6,#0x168
        0x00000d34:    6ae9        .j      LDR      r1,[r5,#0x2c]
        0x00000d36:    68e8        .h      LDR      r0,[r5,#0xc]
        0x00000d38:    4408        .D      ADD      r0,r0,r1
        0x00000d3a:    4639        9F      MOV      r1,r7
        0x00000d3c:    f7ffff7e    ..~.    BL       RZ_ReceiveData ; 0xc3c
        0x00000d40:    42b0        .B      CMP      r0,r6
        0x00000d42:    d03f        ?.      BEQ      0xdc4 ; RZ_ReceiveFile + 232
        0x00000d44:    dc09        ..      BGT      0xd5a ; RZ_ReceiveFile + 126
        0x00000d46:    f1100f03    ....    CMN      r0,#3
        0x00000d4a:    d010        ..      BEQ      0xd6e ; RZ_ReceiveFile + 146
        0x00000d4c:    4548        HE      CMP      r0,r9
        0x00000d4e:    d00c        ..      BEQ      0xd6a ; RZ_ReceiveFile + 142
        0x00000d50:    4540        @E      CMP      r0,r8
        0x00000d52:    d00a        ..      BEQ      0xd6a ; RZ_ReceiveFile + 142
        0x00000d54:    2810        .(      CMP      r0,#0x10
        0x00000d56:    d108        ..      BNE      0xd6a ; RZ_ReceiveFile + 142
        0x00000d58:    e009        ..      B        0xd6e ; RZ_ReceiveFile + 146
        0x00000d5a:    f5a07080    ...p    SUB      r0,r0,#0x100
        0x00000d5e:    3869        i8      SUBS     r0,r0,#0x69
        0x00000d60:    d028        (.      BEQ      0xdb4 ; RZ_ReceiveFile + 216
        0x00000d62:    2801        .(      CMP      r0,#1
        0x00000d64:    d016        ..      BEQ      0xd94 ; RZ_ReceiveFile + 184
        0x00000d66:    2802        .(      CMP      r0,#2
        0x00000d68:    d004        ..      BEQ      0xd74 ; RZ_ReceiveFile + 152
        0x00000d6a:    1e64        d.      SUBS     r4,r4,#1
        0x00000d6c:    d5c2        ..      BPL      0xcf4 ; RZ_ReceiveFile + 24
        0x00000d6e:    4640        @F      MOV      r0,r8
        0x00000d70:    e8bd87f0    ....    POP      {r4-r10,pc}
        0x00000d74:    481c        .H      LDR      r0,[pc,#112] ; [0xde8] = 0x20000034
        0x00000d76:    240a        .$      MOVS     r4,#0xa
        0x00000d78:    302c        ,0      ADDS     r0,r0,#0x2c
        0x00000d7a:    f000f839    ..9.    BL       RZ_SaveToDisk ; 0xdf0
        0x00000d7e:    1c40        @.      ADDS     r0,r0,#1
        0x00000d80:    d0f5        ..      BEQ      0xd6e ; RZ_ReceiveFile + 146
        0x00000d82:    6ae8        .j      LDR      r0,[r5,#0x2c]
        0x00000d84:    f000fd8c    ....    BL       Z_PutLongIntoHeader ; 0x18a0
        0x00000d88:    4917        .I      LDR      r1,[pc,#92] ; [0xde8] = 0x20000034
        0x00000d8a:    2003        .       MOVS     r0,#3
        0x00000d8c:    3124        $1      ADDS     r1,r1,#0x24
        0x00000d8e:    f000fd93    ....    BL       Z_SendHexHeader ; 0x18b8
        0x00000d92:    e7b6        ..      B        0xd02 ; RZ_ReceiveFile + 38
        0x00000d94:    4814        .H      LDR      r0,[pc,#80] ; [0xde8] = 0x20000034
        0x00000d96:    240a        .$      MOVS     r4,#0xa
        0x00000d98:    302c        ,0      ADDS     r0,r0,#0x2c
        0x00000d9a:    f000f829    ..).    BL       RZ_SaveToDisk ; 0xdf0
        0x00000d9e:    1c40        @.      ADDS     r0,r0,#1
        0x00000da0:    d0e5        ..      BEQ      0xd6e ; RZ_ReceiveFile + 146
        0x00000da2:    6ae8        .j      LDR      r0,[r5,#0x2c]
        0x00000da4:    f000fd7c    ..|.    BL       Z_PutLongIntoHeader ; 0x18a0
        0x00000da8:    490f        .I      LDR      r1,[pc,#60] ; [0xde8] = 0x20000034
        0x00000daa:    2003        .       MOVS     r0,#3
        0x00000dac:    3124        $1      ADDS     r1,r1,#0x24
        0x00000dae:    f000fd83    ....    BL       Z_SendHexHeader ; 0x18b8
        0x00000db2:    e7bf        ..      B        0xd34 ; RZ_ReceiveFile + 88
        0x00000db4:    480c        .H      LDR      r0,[pc,#48] ; [0xde8] = 0x20000034
        0x00000db6:    240a        .$      MOVS     r4,#0xa
        0x00000db8:    302c        ,0      ADDS     r0,r0,#0x2c
        0x00000dba:    f000f819    ....    BL       RZ_SaveToDisk ; 0xdf0
        0x00000dbe:    1c40        @.      ADDS     r0,r0,#1
        0x00000dc0:    d1b8        ..      BNE      0xd34 ; RZ_ReceiveFile + 88
        0x00000dc2:    e7d4        ..      B        0xd6e ; RZ_ReceiveFile + 146
        0x00000dc4:    4808        .H      LDR      r0,[pc,#32] ; [0xde8] = 0x20000034
        0x00000dc6:    240a        .$      MOVS     r4,#0xa
        0x00000dc8:    302c        ,0      ADDS     r0,r0,#0x2c
        0x00000dca:    f000f811    ....    BL       RZ_SaveToDisk ; 0xdf0
        0x00000dce:    1c40        @.      ADDS     r0,r0,#1
        0x00000dd0:    d197        ..      BNE      0xd02 ; RZ_ReceiveFile + 38
        0x00000dd2:    e7cc        ..      B        0xd6e ; RZ_ReceiveFile + 146
        0x00000dd4:    4639        9F      MOV      r1,r7
        0x00000dd6:    4805        .H      LDR      r0,[pc,#20] ; [0xdec] = 0x200008b1
        0x00000dd8:    f7ffff30    ..0.    BL       RZ_ReceiveData ; 0xc3c
        0x00000ddc:    e78a        ..      B        0xcf4 ; RZ_ReceiveFile + 24
        0x00000dde:    e9d5120a    ....    LDRD     r1,r2,[r5,#0x28]
        0x00000de2:    4291        .B      CMP      r1,r2
        0x00000de4:    d186        ..      BNE      0xcf4 ; RZ_ReceiveFile + 24
        0x00000de6:    e7c3        ..      B        0xd70 ; RZ_ReceiveFile + 148
    $d
        0x00000de8:    20000034    4..     DCD    536870964
        0x00000dec:    200008b1    ...     DCD    536873137
    $t
    i.RZ_SaveToDisk
    RZ_SaveToDisk
        0x00000df0:    4a03        .J      LDR      r2,[pc,#12] ; [0xe00] = 0x20000034
        0x00000df2:    6801        .h      LDR      r1,[r0,#0]
        0x00000df4:    69d2        .i      LDR      r2,[r2,#0x1c]
        0x00000df6:    4411        .D      ADD      r1,r1,r2
        0x00000df8:    6001        .`      STR      r1,[r0,#0]
        0x00000dfa:    2000        .       MOVS     r0,#0
        0x00000dfc:    4770        pG      BX       lr
    $d
        0x00000dfe:    0000        ..      DCW    0
        0x00000e00:    20000034    4..     DCD    536870964
    $t
    i.SYS_Init
    SYS_Init
        0x00000e04:    b570        p.      PUSH     {r4-r6,lr}
        0x00000e06:    f000f84b    ..K.    BL       SYS_UnlockReg ; 0xea0
        0x00000e0a:    2004        .       MOVS     r0,#4
        0x00000e0c:    f7fffd26    ..&.    BL       CLK_EnableXtalRC ; 0x85c
        0x00000e10:    2010        .       MOVS     r0,#0x10
        0x00000e12:    f7fffdf9    ....    BL       CLK_WaitClockReady ; 0xa08
        0x00000e16:    2100        .!      MOVS     r1,#0
        0x00000e18:    2007        .       MOVS     r0,#7
        0x00000e1a:    f7fffd9b    ....    BL       CLK_SetHCLK ; 0x954
        0x00000e1e:    2001        .       MOVS     r0,#1
        0x00000e20:    f7fffd1c    ....    BL       CLK_EnableXtalRC ; 0x85c
        0x00000e24:    2001        .       MOVS     r0,#1
        0x00000e26:    f7fffdef    ....    BL       CLK_WaitClockReady ; 0xa08
        0x00000e2a:    4812        .H      LDR      r0,[pc,#72] ; [0xe74] = 0x44aa200
        0x00000e2c:    f7fffd4a    ..J.    BL       CLK_SetCoreClock ; 0x8c4
        0x00000e30:    f000f87c    ..|.    BL       SystemCoreClockUpdate ; 0xf2c
        0x00000e34:    4c10        .L      LDR      r4,[pc,#64] ; [0xe78] = 0x57803d10
        0x00000e36:    4620         F      MOV      r0,r4
        0x00000e38:    f7fffc35    ..5.    BL       CLK_EnableModuleClock ; 0x6a6
        0x00000e3c:    4d0f        .M      LDR      r5,[pc,#60] ; [0xe7c] = 0x5e800002
        0x00000e3e:    4628        (F      MOV      r0,r5
        0x00000e40:    f7fffc31    ..1.    BL       CLK_EnableModuleClock ; 0x6a6
        0x00000e44:    2200        ."      MOVS     r2,#0
        0x00000e46:    4611        .F      MOV      r1,r2
        0x00000e48:    4620         F      MOV      r0,r4
        0x00000e4a:    f7fffdb5    ....    BL       CLK_SetModuleClock ; 0x9b8
        0x00000e4e:    2200        ."      MOVS     r2,#0
        0x00000e50:    4611        .F      MOV      r1,r2
        0x00000e52:    4628        (F      MOV      r0,r5
        0x00000e54:    f7fffdb0    ....    BL       CLK_SetModuleClock ; 0x9b8
        0x00000e58:    06a0        ..      LSLS     r0,r4,#26
        0x00000e5a:    6c81        .l      LDR      r1,[r0,#0x48]
        0x00000e5c:    4a08        .J      LDR      r2,[pc,#32] ; [0xe80] = 0xf0ffff0f
        0x00000e5e:    4011        .@      ANDS     r1,r1,r2
        0x00000e60:    6481        .d      STR      r1,[r0,#0x48]
        0x00000e62:    6c81        .l      LDR      r1,[r0,#0x48]
        0x00000e64:    4a07        .J      LDR      r2,[pc,#28] ; [0xe84] = 0x3000030
        0x00000e66:    4311        .C      ORRS     r1,r1,r2
        0x00000e68:    6481        .d      STR      r1,[r0,#0x48]
        0x00000e6a:    2100        .!      MOVS     r1,#0
        0x00000e6c:    f8c01100    ....    STR      r1,[r0,#0x100]
        0x00000e70:    bd70        p.      POP      {r4-r6,pc}
    $d
        0x00000e72:    0000        ..      DCW    0
        0x00000e74:    044aa200    ..J.    DCD    72000000
        0x00000e78:    57803d10    .=.W    DCD    1468022032
        0x00000e7c:    5e800002    ...^    DCD    1585446914
        0x00000e80:    f0ffff0f    ....    DCD    4043308815
        0x00000e84:    03000030    0...    DCD    50331696
    $t
    i.SYS_ResetModule
    SYS_ResetModule
        0x00000e88:    0e01        ..      LSRS     r1,r0,#24
        0x00000e8a:    f1014180    ...A    ADD      r1,r1,#0x40000000
        0x00000e8e:    688b        .h      LDR      r3,[r1,#8]
        0x00000e90:    2201        ."      MOVS     r2,#1
        0x00000e92:    4082        .@      LSLS     r2,r2,r0
        0x00000e94:    4313        .C      ORRS     r3,r3,r2
        0x00000e96:    608b        .`      STR      r3,[r1,#8]
        0x00000e98:    6888        .h      LDR      r0,[r1,#8]
        0x00000e9a:    4390        .C      BICS     r0,r0,r2
        0x00000e9c:    6088        .`      STR      r0,[r1,#8]
        0x00000e9e:    4770        pG      BX       lr
    i.SYS_UnlockReg
    SYS_UnlockReg
        0x00000ea0:    2159        Y!      MOVS     r1,#0x59
        0x00000ea2:    b510        ..      PUSH     {r4,lr}
        0x00000ea4:    0788        ..      LSLS     r0,r1,#30
        0x00000ea6:    2216        ."      MOVS     r2,#0x16
        0x00000ea8:    2388        .#      MOVS     r3,#0x88
        0x00000eaa:    f8c01100    ....    STR      r1,[r0,#0x100]
        0x00000eae:    f8c02100    ...!    STR      r2,[r0,#0x100]
        0x00000eb2:    f8c03100    ...1    STR      r3,[r0,#0x100]
        0x00000eb6:    f8d04100    ...A    LDR      r4,[r0,#0x100]
        0x00000eba:    2c00        .,      CMP      r4,#0
        0x00000ebc:    d0f5        ..      BEQ      0xeaa ; SYS_UnlockReg + 10
        0x00000ebe:    bd10        ..      POP      {r4,pc}
    i.SendChar
    SendChar
        0x00000ec0:    b570        p.      PUSH     {r4-r6,lr}
        0x00000ec2:    4c11        .L      LDR      r4,[pc,#68] ; [0xf08] = 0x2000002c
        0x00000ec4:    4e0f        .N      LDR      r6,[pc,#60] ; [0xf04] = 0x20000080
        0x00000ec6:    2500        .%      MOVS     r5,#0
        0x00000ec8:    7821        !x      LDRB     r1,[r4,#0]
        0x00000eca:    5470        pT      STRB     r0,[r6,r1]
        0x00000ecc:    1c49        I.      ADDS     r1,r1,#1
        0x00000ece:    b2c9        ..      UXTB     r1,r1
        0x00000ed0:    7021        !p      STRB     r1,[r4,#0]
        0x00000ed2:    5475        uT      STRB     r5,[r6,r1]
        0x00000ed4:    1c49        I.      ADDS     r1,r1,#1
        0x00000ed6:    2910        .)      CMP      r1,#0x10
        0x00000ed8:    d203        ..      BCS      0xee2 ; SendChar + 34
        0x00000eda:    280a        .(      CMP      r0,#0xa
        0x00000edc:    d001        ..      BEQ      0xee2 ; SendChar + 34
        0x00000ede:    2800        .(      CMP      r0,#0
        0x00000ee0:    d10f        ..      BNE      0xf02 ; SendChar + 66
        0x00000ee2:    2200        ."      MOVS     r2,#0
        0x00000ee4:    4907        .I      LDR      r1,[pc,#28] ; [0xf04] = 0x20000080
        0x00000ee6:    2004        .       MOVS     r0,#4
        0x00000ee8:    f7fff99e    ....    BL       SH_DoCommand ; 0x228
        0x00000eec:    b940        @.      CBNZ     r0,0xf00 ; SendChar + 64
        0x00000eee:    2300        .#      MOVS     r3,#0
        0x00000ef0:    e003        ..      B        0xefa ; SendChar + 58
        0x00000ef2:    5cf0        .\      LDRB     r0,[r6,r3]
        0x00000ef4:    f000f80a    ....    BL       SendChar_ToUART ; 0xf0c
        0x00000ef8:    1c5b        [.      ADDS     r3,r3,#1
        0x00000efa:    7820         x      LDRB     r0,[r4,#0]
        0x00000efc:    4283        .B      CMP      r3,r0
        0x00000efe:    dbf8        ..      BLT      0xef2 ; SendChar + 50
        0x00000f00:    7025        %p      STRB     r5,[r4,#0]
        0x00000f02:    bd70        p.      POP      {r4-r6,pc}
    $d
        0x00000f04:    20000080    ...     DCD    536871040
        0x00000f08:    2000002c    ,..     DCD    536870956
    $t
    i.SendChar_ToUART
    SendChar_ToUART
        0x00000f0c:    4906        .I      LDR      r1,[pc,#24] ; [0xf28] = 0x40070000
        0x00000f0e:    698a        .i      LDR      r2,[r1,#0x18]
        0x00000f10:    0212        ..      LSLS     r2,r2,#8
        0x00000f12:    d4fc        ..      BMI      0xf0e ; SendChar_ToUART + 2
        0x00000f14:    6008        .`      STR      r0,[r1,#0]
        0x00000f16:    280a        .(      CMP      r0,#0xa
        0x00000f18:    d104        ..      BNE      0xf24 ; SendChar_ToUART + 24
        0x00000f1a:    6988        .i      LDR      r0,[r1,#0x18]
        0x00000f1c:    0200        ..      LSLS     r0,r0,#8
        0x00000f1e:    d4fc        ..      BMI      0xf1a ; SendChar_ToUART + 14
        0x00000f20:    200d        .       MOVS     r0,#0xd
        0x00000f22:    6008        .`      STR      r0,[r1,#0]
        0x00000f24:    4770        pG      BX       lr
    $d
        0x00000f26:    0000        ..      DCW    0
        0x00000f28:    40070000    ...@    DCD    1074200576
    $t
    i.SystemCoreClockUpdate
    SystemCoreClockUpdate
        0x00000f2c:    b518        ..      PUSH     {r3,r4,lr}
        0x00000f2e:    a01f        ..      ADR      r0,{pc}+0x7e ; 0xfac
        0x00000f30:    f04f4480    O..D    MOV      r4,#0x40000000
        0x00000f34:    6800        .h      LDR      r0,[r0,#0]
        0x00000f36:    9000        ..      STR      r0,[sp,#0]
        0x00000f38:    f8d40240    ..@.    LDR      r0,[r4,#0x240]
        0x00000f3c:    f4102fa0    .../    TST      r0,#0x50000
        0x00000f40:    d001        ..      BEQ      0xf46 ; SystemCoreClockUpdate + 26
        0x00000f42:    2100        .!      MOVS     r1,#0
        0x00000f44:    e017        ..      B        0xf76 ; SystemCoreClockUpdate + 74
        0x00000f46:    0301        ..      LSLS     r1,r0,#12
        0x00000f48:    d501        ..      BPL      0xf4e ; SystemCoreClockUpdate + 34
        0x00000f4a:    4919        .I      LDR      r1,[pc,#100] ; [0xfb0] = 0x1518000
        0x00000f4c:    e000        ..      B        0xf50 ; SystemCoreClockUpdate + 36
        0x00000f4e:    4919        .I      LDR      r1,[pc,#100] ; [0xfb4] = 0xb71b00
        0x00000f50:    0382        ..      LSLS     r2,r0,#14
        0x00000f52:    d410        ..      BMI      0xf76 ; SystemCoreClockUpdate + 74
        0x00000f54:    f3c00208    ....    UBFX     r2,r0,#0,#9
        0x00000f58:    f3c03381    ...3    UBFX     r3,r0,#14,#2
        0x00000f5c:    0889        ..      LSRS     r1,r1,#2
        0x00000f5e:    1c92        ..      ADDS     r2,r2,#2
        0x00000f60:    f81d3003    ...0    LDRB     r3,[sp,r3]
        0x00000f64:    f3c02044    ..D     UBFX     r0,r0,#9,#5
        0x00000f68:    4351        QC      MULS     r1,r2,r1
        0x00000f6a:    1c80        ..      ADDS     r0,r0,#2
        0x00000f6c:    fb10f003    ....    SMULBB   r0,r0,r3
        0x00000f70:    fbb1f0f0    ....    UDIV     r0,r1,r0
        0x00000f74:    0081        ..      LSLS     r1,r0,#2
        0x00000f76:    4a10        .J      LDR      r2,[pc,#64] ; [0xfb8] = 0x20000000
        0x00000f78:    6091        .`      STR      r1,[r2,#8]
        0x00000f7a:    f8d40210    ....    LDR      r0,[r4,#0x210]
        0x00000f7e:    f0000007    ....    AND      r0,r0,#7
        0x00000f82:    2802        .(      CMP      r0,#2
        0x00000f84:    d003        ..      BEQ      0xf8e ; SystemCoreClockUpdate + 98
        0x00000f86:    f102010c    ....    ADD      r1,r2,#0xc
        0x00000f8a:    f8511020    Q. .    LDR      r1,[r1,r0,LSL #2]
        0x00000f8e:    f8d40220    .. .    LDR      r0,[r4,#0x220]
        0x00000f92:    f000000f    ....    AND      r0,r0,#0xf
        0x00000f96:    1c40        @.      ADDS     r0,r0,#1
        0x00000f98:    fbb1f0f0    ....    UDIV     r0,r1,r0
        0x00000f9c:    4907        .I      LDR      r1,[pc,#28] ; [0xfbc] = 0x7a120
        0x00000f9e:    6010        .`      STR      r0,[r2,#0]
        0x00000fa0:    4408        .D      ADD      r0,r0,r1
        0x00000fa2:    0049        I.      LSLS     r1,r1,#1
        0x00000fa4:    fbb0f0f1    ....    UDIV     r0,r0,r1
        0x00000fa8:    6050        P`      STR      r0,[r2,#4]
        0x00000faa:    bd18        ..      POP      {r3,r4,pc}
    $d
        0x00000fac:    04020201    ....    DCD    67240449
        0x00000fb0:    01518000    ..Q.    DCD    22118400
        0x00000fb4:    00b71b00    ....    DCD    12000000
        0x00000fb8:    20000000    ...     DCD    536870912
        0x00000fbc:    0007a120     ...    DCD    500000
    $t
    i.SystemInit
    SystemInit
        0x00000fc0:    b510        ..      PUSH     {r4,lr}
        0x00000fc2:    2159        Y!      MOVS     r1,#0x59
        0x00000fc4:    2216        ."      MOVS     r2,#0x16
        0x00000fc6:    2388        .#      MOVS     r3,#0x88
        0x00000fc8:    0788        ..      LSLS     r0,r1,#30
        0x00000fca:    f8c01100    ....    STR      r1,[r0,#0x100]
        0x00000fce:    f8c02100    ...!    STR      r2,[r0,#0x100]
        0x00000fd2:    f8c03100    ...1    STR      r3,[r0,#0x100]
        0x00000fd6:    f8d04100    ...A    LDR      r4,[r0,#0x100]
        0x00000fda:    2c00        .,      CMP      r4,#0
        0x00000fdc:    d0f5        ..      BEQ      0xfca ; SystemInit + 10
        0x00000fde:    6801        .h      LDR      r1,[r0,#0]
        0x00000fe0:    f6401245    @.E.    MOV      r2,#0x945
        0x00000fe4:    ebb23f11    ...?    CMP      r2,r1,LSR #12
        0x00000fe8:    d103        ..      BNE      0xff2 ; SystemInit + 50
        0x00000fea:    6941        Ai      LDR      r1,[r0,#0x14]
        0x00000fec:    f0410180    A...    ORR      r1,r1,#0x80
        0x00000ff0:    6141        Aa      STR      r1,[r0,#0x14]
        0x00000ff2:    f8d01200    ....    LDR      r1,[r0,#0x200]
        0x00000ff6:    f4215180    !..Q    BIC      r1,r1,#0x1000
        0x00000ffa:    f8c01200    ....    STR      r1,[r0,#0x200]
        0x00000ffe:    2100        .!      MOVS     r1,#0
        0x00001000:    f8c01100    ....    STR      r1,[r0,#0x100]
        0x00001004:    4802        .H      LDR      r0,[pc,#8] ; [0x1010] = 0xe000ed88
        0x00001006:    6801        .h      LDR      r1,[r0,#0]
        0x00001008:    f4410170    A.p.    ORR      r1,r1,#0xf00000
        0x0000100c:    6001        .`      STR      r1,[r0,#0]
        0x0000100e:    bd10        ..      POP      {r4,pc}
    $d
        0x00001010:    e000ed88    ....    DCD    3758157192
    $t
    i.TIMER_GetModuleClock
    TIMER_GetModuleClock
        0x00001014:    b510        ..      PUSH     {r4,lr}
        0x00001016:    b088        ..      SUB      sp,sp,#0x20
        0x00001018:    4604        .F      MOV      r4,r0
        0x0000101a:    2220         "      MOVS     r2,#0x20
        0x0000101c:    4914        .I      LDR      r1,[pc,#80] ; [0x1070] = 0x1e30
        0x0000101e:    4668        hF      MOV      r0,sp
        0x00001020:    f7fffa05    ....    BL       __aeabi_memcpy4 ; 0x42e
        0x00001024:    4913        .I      LDR      r1,[pc,#76] ; [0x1074] = 0x40050000
        0x00001026:    0388        ..      LSLS     r0,r1,#14
        0x00001028:    428c        .B      CMP      r4,r1
        0x0000102a:    d104        ..      BNE      0x1036 ; TIMER_GetModuleClock + 34
        0x0000102c:    f8d00214    ....    LDR      r0,[r0,#0x214]
        0x00001030:    f3c02002    ...     UBFX     r0,r0,#8,#3
        0x00001034:    e012        ..      B        0x105c ; TIMER_GetModuleClock + 72
        0x00001036:    490f        .I      LDR      r1,[pc,#60] ; [0x1074] = 0x40050000
        0x00001038:    3120         1      ADDS     r1,r1,#0x20
        0x0000103a:    428c        .B      CMP      r4,r1
        0x0000103c:    d104        ..      BNE      0x1048 ; TIMER_GetModuleClock + 52
        0x0000103e:    f8d00214    ....    LDR      r0,[r0,#0x214]
        0x00001042:    f3c03002    ...0    UBFX     r0,r0,#12,#3
        0x00001046:    e009        ..      B        0x105c ; TIMER_GetModuleClock + 72
        0x00001048:    490b        .I      LDR      r1,[pc,#44] ; [0x1078] = 0x40051000
        0x0000104a:    f8d00214    ....    LDR      r0,[r0,#0x214]
        0x0000104e:    428c        .B      CMP      r4,r1
        0x00001050:    d102        ..      BNE      0x1058 ; TIMER_GetModuleClock + 68
        0x00001052:    f3c04002    ...@    UBFX     r0,r0,#16,#3
        0x00001056:    e001        ..      B        0x105c ; TIMER_GetModuleClock + 72
        0x00001058:    f3c05002    ...P    UBFX     r0,r0,#20,#3
        0x0000105c:    2802        .(      CMP      r0,#2
        0x0000105e:    d003        ..      BEQ      0x1068 ; TIMER_GetModuleClock + 84
        0x00001060:    f85d0020    ]. .    LDR      r0,[sp,r0,LSL #2]
        0x00001064:    b008        ..      ADD      sp,sp,#0x20
        0x00001066:    bd10        ..      POP      {r4,pc}
        0x00001068:    4804        .H      LDR      r0,[pc,#16] ; [0x107c] = 0x20000000
        0x0000106a:    6800        .h      LDR      r0,[r0,#0]
        0x0000106c:    e7fa        ..      B        0x1064 ; TIMER_GetModuleClock + 80
    $d
        0x0000106e:    0000        ..      DCW    0
        0x00001070:    00001e30    0...    DCD    7728
        0x00001074:    40050000    ...@    DCD    1074069504
        0x00001078:    40051000    ...@    DCD    1074073600
        0x0000107c:    20000000    ...     DCD    536870912
    $t
    i.TIMER_Open
    TIMER_Open
        0x00001080:    b570        p.      PUSH     {r4-r6,lr}
        0x00001082:    4614        .F      MOV      r4,r2
        0x00001084:    460e        .F      MOV      r6,r1
        0x00001086:    4605        .F      MOV      r5,r0
        0x00001088:    f7ffffc4    ....    BL       TIMER_GetModuleClock ; 0x1014
        0x0000108c:    2100        .!      MOVS     r1,#0
        0x0000108e:    ebb40f50    ..P.    CMP      r4,r0,LSR #1
        0x00001092:    d901        ..      BLS      0x1098 ; TIMER_Open + 24
        0x00001094:    2202        ."      MOVS     r2,#2
        0x00001096:    e012        ..      B        0x10be ; TIMER_Open + 62
        0x00001098:    4a0d        .J      LDR      r2,[pc,#52] ; [0x10d0] = 0x3d09000
        0x0000109a:    4290        .B      CMP      r0,r2
        0x0000109c:    d902        ..      BLS      0x10a4 ; TIMER_Open + 36
        0x0000109e:    2107        .!      MOVS     r1,#7
        0x000010a0:    08c0        ..      LSRS     r0,r0,#3
        0x000010a2:    e00a        ..      B        0x10ba ; TIMER_Open + 58
        0x000010a4:    4a0b        .J      LDR      r2,[pc,#44] ; [0x10d4] = 0x1e84800
        0x000010a6:    4290        .B      CMP      r0,r2
        0x000010a8:    d902        ..      BLS      0x10b0 ; TIMER_Open + 48
        0x000010aa:    2103        .!      MOVS     r1,#3
        0x000010ac:    0880        ..      LSRS     r0,r0,#2
        0x000010ae:    e004        ..      B        0x10ba ; TIMER_Open + 58
        0x000010b0:    4a09        .J      LDR      r2,[pc,#36] ; [0x10d8] = 0xf42400
        0x000010b2:    4290        .B      CMP      r0,r2
        0x000010b4:    d901        ..      BLS      0x10ba ; TIMER_Open + 58
        0x000010b6:    2101        .!      MOVS     r1,#1
        0x000010b8:    0840        @.      LSRS     r0,r0,#1
        0x000010ba:    fbb0f2f4    ....    UDIV     r2,r0,r4
        0x000010be:    430e        .C      ORRS     r6,r6,r1
        0x000010c0:    602e        .`      STR      r6,[r5,#0]
        0x000010c2:    606a        j`      STR      r2,[r5,#4]
        0x000010c4:    1c49        I.      ADDS     r1,r1,#1
        0x000010c6:    434a        JC      MULS     r2,r1,r2
        0x000010c8:    fbb0f0f2    ....    UDIV     r0,r0,r2
        0x000010cc:    bd70        p.      POP      {r4-r6,pc}
    $d
        0x000010ce:    0000        ..      DCW    0
        0x000010d0:    03d09000    ....    DCD    64000000
        0x000010d4:    01e84800    .H..    DCD    32000000
        0x000010d8:    00f42400    .$..    DCD    16000000
    $t
    i.TMR0_IRQHandler
    TMR0_IRQHandler
        0x000010dc:    4803        .H      LDR      r0,[pc,#12] ; [0x10ec] = 0x40050000
        0x000010de:    6881        .h      LDR      r1,[r0,#8]
        0x000010e0:    f0210102    !...    BIC      r1,r1,#2
        0x000010e4:    f0410101    A...    ORR      r1,r1,#1
        0x000010e8:    6081        .`      STR      r1,[r0,#8]
        0x000010ea:    4770        pG      BX       lr
    $d
        0x000010ec:    40050000    ...@    DCD    1074069504
    $t
    i.Timer0_Init
    Timer0_Init
        0x000010f0:    b510        ..      PUSH     {r4,lr}
        0x000010f2:    4c0a        .L      LDR      r4,[pc,#40] ; [0x111c] = 0x40050000
        0x000010f4:    220b        ."      MOVS     r2,#0xb
        0x000010f6:    f04f6100    O..a    MOV      r1,#0x8000000
        0x000010fa:    4620         F      MOV      r0,r4
        0x000010fc:    f7ffffc0    ....    BL       TIMER_Open ; 0x1080
        0x00001100:    6820         h      LDR      r0,[r4,#0]
        0x00001102:    f0405000    @..P    ORR      r0,r0,#0x20000000
        0x00001106:    6020         `      STR      r0,[r4,#0]
        0x00001108:    4905        .I      LDR      r1,[pc,#20] ; [0x1120] = 0xe000e004
        0x0000110a:    2001        .       MOVS     r0,#1
        0x0000110c:    f8c10100    ....    STR      r0,[r1,#0x100]
        0x00001110:    6820         h      LDR      r0,[r4,#0]
        0x00001112:    f0404080    @..@    ORR      r0,r0,#0x40000000
        0x00001116:    6020         `      STR      r0,[r4,#0]
        0x00001118:    bd10        ..      POP      {r4,pc}
    $d
        0x0000111a:    0000        ..      DCW    0
        0x0000111c:    40050000    ...@    DCD    1074069504
        0x00001120:    e000e004    ....    DCD    3758153732
    $t
    i.UART0_Init
    UART0_Init
        0x00001124:    b510        ..      PUSH     {r4,lr}
        0x00001126:    4805        .H      LDR      r0,[pc,#20] ; [0x113c] = 0x4000010
        0x00001128:    f7fffeae    ....    BL       SYS_ResetModule ; 0xe88
        0x0000112c:    e8bd4010    ...@    POP      {r4,lr}
        0x00001130:    f44f31e1    O..1    MOV      r1,#0x1c200
        0x00001134:    4802        .H      LDR      r0,[pc,#8] ; [0x1140] = 0x40070000
        0x00001136:    f000b805    ....    B.W      UART_Open ; 0x1144
    $d
        0x0000113a:    0000        ..      DCW    0
        0x0000113c:    04000010    ....    DCD    67108880
        0x00001140:    40070000    ...@    DCD    1074200576
    $t
    i.UART_Open
    UART_Open
        0x00001144:    e92d41ff    -..A    PUSH     {r0-r8,lr}
        0x00001148:    4604        .F      MOV      r4,r0
        0x0000114a:    481d        .H      LDR      r0,[pc,#116] ; [0x11c0] = 0x1e50
        0x0000114c:    460d        .F      MOV      r5,r1
        0x0000114e:    c80f        ..      LDM      r0,{r0-r3}
        0x00001150:    e88d000f    ....    STM      sp,{r0-r3}
        0x00001154:    f04f4080    O..@    MOV      r0,#0x40000000
        0x00001158:    f8d01214    ....    LDR      r1,[r0,#0x214]
        0x0000115c:    f8d00220    .. .    LDR      r0,[r0,#0x220]
        0x00001160:    f3c16601    ...f    UBFX     r6,r1,#24,#2
        0x00001164:    f3c02703    ...'    UBFX     r7,r0,#8,#4
        0x00001168:    2000        .       MOVS     r0,#0
        0x0000116a:    6320         c      STR      r0,[r4,#0x30]
        0x0000116c:    2003        .       MOVS     r0,#3
        0x0000116e:    60e0        .`      STR      r0,[r4,#0xc]
        0x00001170:    68a0        .h      LDR      r0,[r4,#8]
        0x00001172:    4914        .I      LDR      r1,[pc,#80] ; [0x11c4] = 0xfff0ff0f
        0x00001174:    4008        .@      ANDS     r0,r0,r1
        0x00001176:    60a0        .`      STR      r0,[r4,#8]
        0x00001178:    46e8        .F      MOV      r8,sp
        0x0000117a:    2e01        ..      CMP      r6,#1
        0x0000117c:    d102        ..      BNE      0x1184 ; UART_Open + 64
        0x0000117e:    f7fffb75    ..u.    BL       CLK_GetPLLClockFreq ; 0x86c
        0x00001182:    9001        ..      STR      r0,[sp,#4]
        0x00001184:    2d00        .-      CMP      r5,#0
        0x00001186:    d018        ..      BEQ      0x11ba ; UART_Open + 118
        0x00001188:    f8580026    X.&.    LDR      r0,[r8,r6,LSL #2]
        0x0000118c:    1c7f        ..      ADDS     r7,r7,#1
        0x0000118e:    fbb0f1f7    ....    UDIV     r1,r0,r7
        0x00001192:    eb010055    ..U.    ADD      r0,r1,r5,LSR #1
        0x00001196:    fbb0f0f5    ....    UDIV     r0,r0,r5
        0x0000119a:    1e80        ..      SUBS     r0,r0,#2
        0x0000119c:    f5b03f80    ...?    CMP      r0,#0x10000
        0x000011a0:    d308        ..      BCC      0x11b4 ; UART_Open + 112
        0x000011a2:    eb0100c5    ....    ADD      r0,r1,r5,LSL #3
        0x000011a6:    fbb0f0f5    ....    UDIV     r0,r0,r5
        0x000011aa:    f06f0101    o...    MVN      r1,#1
        0x000011ae:    eb011010    ....    ADD      r0,r1,r0,LSR #4
        0x000011b2:    e001        ..      B        0x11b8 ; UART_Open + 116
        0x000011b4:    f0405040    @.@P    ORR      r0,r0,#0x30000000
        0x000011b8:    6260        `b      STR      r0,[r4,#0x24]
        0x000011ba:    e8bd81ff    ....    POP      {r0-r8,pc}
    $d
        0x000011be:    0000        ..      DCW    0
        0x000011c0:    00001e50    P...    DCD    7760
        0x000011c4:    fff0ff0f    ....    DCD    4293984015
    $t
    i.UART_Read
    UART_Read
        0x000011c8:    b570        p.      PUSH     {r4-r6,lr}
        0x000011ca:    4604        .F      MOV      r4,r0
        0x000011cc:    2000        .       MOVS     r0,#0
        0x000011ce:    f04f4580    O..E    MOV      r5,#0x40000000
        0x000011d2:    e00c        ..      B        0x11ee ; UART_Read + 38
        0x000011d4:    2300        .#      MOVS     r3,#0
        0x000011d6:    e004        ..      B        0x11e2 ; UART_Read + 26
        0x000011d8:    1c5b        [.      ADDS     r3,r3,#1
        0x000011da:    42ab        .B      CMP      r3,r5
        0x000011dc:    d301        ..      BCC      0x11e2 ; UART_Read + 26
        0x000011de:    2000        .       MOVS     r0,#0
        0x000011e0:    bd70        p.      POP      {r4-r6,pc}
        0x000011e2:    69a6        .i      LDR      r6,[r4,#0x18]
        0x000011e4:    0476        v.      LSLS     r6,r6,#17
        0x000011e6:    d4f7        ..      BMI      0x11d8 ; UART_Read + 16
        0x000011e8:    6823        #h      LDR      r3,[r4,#0]
        0x000011ea:    540b        .T      STRB     r3,[r1,r0]
        0x000011ec:    1c40        @.      ADDS     r0,r0,#1
        0x000011ee:    4290        .B      CMP      r0,r2
        0x000011f0:    d3f0        ..      BCC      0x11d4 ; UART_Read + 12
        0x000011f2:    bd70        p.      POP      {r4-r6,pc}
    i.UART_Write
    UART_Write
        0x000011f4:    b570        p.      PUSH     {r4-r6,lr}
        0x000011f6:    4604        .F      MOV      r4,r0
        0x000011f8:    2000        .       MOVS     r0,#0
        0x000011fa:    f04f4580    O..E    MOV      r5,#0x40000000
        0x000011fe:    e00c        ..      B        0x121a ; UART_Write + 38
        0x00001200:    2300        .#      MOVS     r3,#0
        0x00001202:    e004        ..      B        0x120e ; UART_Write + 26
        0x00001204:    1c5b        [.      ADDS     r3,r3,#1
        0x00001206:    42ab        .B      CMP      r3,r5
        0x00001208:    d301        ..      BCC      0x120e ; UART_Write + 26
        0x0000120a:    2000        .       MOVS     r0,#0
        0x0000120c:    bd70        p.      POP      {r4-r6,pc}
        0x0000120e:    69a6        .i      LDR      r6,[r4,#0x18]
        0x00001210:    00f6        ..      LSLS     r6,r6,#3
        0x00001212:    d5f7        ..      BPL      0x1204 ; UART_Write + 16
        0x00001214:    5c0b        .\      LDRB     r3,[r1,r0]
        0x00001216:    6023        #`      STR      r3,[r4,#0]
        0x00001218:    1c40        @.      ADDS     r0,r0,#1
        0x0000121a:    4290        .B      CMP      r0,r2
        0x0000121c:    d1f0        ..      BNE      0x1200 ; UART_Write + 12
        0x0000121e:    bd70        p.      POP      {r4-r6,pc}
    i.ZS_EndSend
    ZS_EndSend
        0x00001220:    b570        p.      PUSH     {r4-r6,lr}
        0x00001222:    f06f0402    o...    MVN      r4,#2
        0x00001226:    1065        e.      ASRS     r5,r4,#1
        0x00001228:    2000        .       MOVS     r0,#0
        0x0000122a:    f000fb39    ..9.    BL       Z_PutLongIntoHeader ; 0x18a0
        0x0000122e:    490c        .I      LDR      r1,[pc,#48] ; [0x1260] = 0x20000058
        0x00001230:    2008        .       MOVS     r0,#8
        0x00001232:    f000f85b    ..[.    BL       ZS_SendBinaryHeader ; 0x12ec
        0x00001236:    480a        .H      LDR      r0,[pc,#40] ; [0x1260] = 0x20000058
        0x00001238:    1f00        ..      SUBS     r0,r0,#4
        0x0000123a:    f000fa7f    ....    BL       Z_GetHeader ; 0x173c
        0x0000123e:    42a0        .B      CMP      r0,r4
        0x00001240:    d005        ..      BEQ      0x124e ; ZS_EndSend + 46
        0x00001242:    42a8        .B      CMP      r0,r5
        0x00001244:    d003        ..      BEQ      0x124e ; ZS_EndSend + 46
        0x00001246:    2808        .(      CMP      r0,#8
        0x00001248:    d002        ..      BEQ      0x1250 ; ZS_EndSend + 48
        0x0000124a:    2810        .(      CMP      r0,#0x10
        0x0000124c:    d1ec        ..      BNE      0x1228 ; ZS_EndSend + 8
        0x0000124e:    bd70        p.      POP      {r4-r6,pc}
        0x00001250:    204f        O       MOVS     r0,#0x4f
        0x00001252:    f000fddb    ....    BL       zmputchar ; 0x1e0c
        0x00001256:    e8bd4070    ..p@    POP      {r4-r6,lr}
        0x0000125a:    204f        O       MOVS     r0,#0x4f
        0x0000125c:    f000bdd6    ....    B.W      zmputchar ; 0x1e0c
    $d
        0x00001260:    20000058    X..     DCD    536871000
    $t
    i.ZS_GetReceiverInfo
    ZS_GetReceiverInfo
        0x00001264:    e92d47f0    -..G    PUSH     {r4-r10,lr}
        0x00001268:    4d1f        .M      LDR      r5,[pc,#124] ; [0x12e8] = 0x20000034
        0x0000126a:    240a        .$      MOVS     r4,#0xa
        0x0000126c:    f04f39ff    O..9    MOV      r9,#0xffffffff
        0x00001270:    f1050620    .. .    ADD      r6,r5,#0x20
        0x00001274:    f06f0702    o...    MVN      r7,#2
        0x00001278:    f06f0801    o...    MVN      r8,#1
        0x0000127c:    e02f        /.      B        0x12de ; ZS_GetReceiverInfo + 122
        0x0000127e:    481a        .H      LDR      r0,[pc,#104] ; [0x12e8] = 0x20000034
        0x00001280:    3020         0      ADDS     r0,r0,#0x20
        0x00001282:    f000fa5b    ..[.    BL       Z_GetHeader ; 0x173c
        0x00001286:    2801        .(      CMP      r0,#1
        0x00001288:    d01d        ..      BEQ      0x12c6 ; ZS_GetReceiverInfo + 98
        0x0000128a:    dc05        ..      BGT      0x1298 ; ZS_GetReceiverInfo + 52
        0x0000128c:    42b8        .B      CMP      r0,r7
        0x0000128e:    d028        (.      BEQ      0x12e2 ; ZS_GetReceiverInfo + 126
        0x00001290:    4540        @E      CMP      r0,r8
        0x00001292:    d026        &.      BEQ      0x12e2 ; ZS_GetReceiverInfo + 126
        0x00001294:    b9f8        ..      CBNZ     r0,0x12d6 ; ZS_GetReceiverInfo + 114
        0x00001296:    e01b        ..      B        0x12d0 ; ZS_GetReceiverInfo + 108
        0x00001298:    280e        .(      CMP      r0,#0xe
        0x0000129a:    d004        ..      BEQ      0x12a6 ; ZS_GetReceiverInfo + 66
        0x0000129c:    2810        .(      CMP      r0,#0x10
        0x0000129e:    d020         .      BEQ      0x12e2 ; ZS_GetReceiverInfo + 126
        0x000012a0:    2812        .(      CMP      r0,#0x12
        0x000012a2:    d118        ..      BNE      0x12d6 ; ZS_GetReceiverInfo + 114
        0x000012a4:    e006        ..      B        0x12b4 ; ZS_GetReceiverInfo + 80
        0x000012a6:    6aa8        .j      LDR      r0,[r5,#0x28]
        0x000012a8:    f000fafa    ....    BL       Z_PutLongIntoHeader ; 0x18a0
        0x000012ac:    490e        .I      LDR      r1,[pc,#56] ; [0x12e8] = 0x20000034
        0x000012ae:    3124        $1      ADDS     r1,r1,#0x24
        0x000012b0:    2003        .       MOVS     r0,#3
        0x000012b2:    e005        ..      B        0x12c0 ; ZS_GetReceiverInfo + 92
        0x000012b4:    2000        .       MOVS     r0,#0
        0x000012b6:    f000faf3    ....    BL       Z_PutLongIntoHeader ; 0x18a0
        0x000012ba:    490b        .I      LDR      r1,[pc,#44] ; [0x12e8] = 0x20000034
        0x000012bc:    2000        .       MOVS     r0,#0
        0x000012be:    3124        $1      ADDS     r1,r1,#0x24
        0x000012c0:    f000fafa    ....    BL       Z_SendHexHeader ; 0x18b8
        0x000012c4:    e00b        ..      B        0x12de ; ZS_GetReceiverInfo + 122
        0x000012c6:    8830        0.      LDRH     r0,[r6,#0]
        0x000012c8:    6068        h`      STR      r0,[r5,#4]
        0x000012ca:    2000        .       MOVS     r0,#0
        0x000012cc:    e8bd87f0    ....    POP      {r4-r10,pc}
        0x000012d0:    78f0        .x      LDRB     r0,[r6,#3]
        0x000012d2:    2812        .(      CMP      r0,#0x12
        0x000012d4:    d003        ..      BEQ      0x12de ; ZS_GetReceiverInfo + 122
        0x000012d6:    4904        .I      LDR      r1,[pc,#16] ; [0x12e8] = 0x20000034
        0x000012d8:    3124        $1      ADDS     r1,r1,#0x24
        0x000012da:    2006        .       MOVS     r0,#6
        0x000012dc:    e7f0        ..      B        0x12c0 ; ZS_GetReceiverInfo + 92
        0x000012de:    1e64        d.      SUBS     r4,r4,#1
        0x000012e0:    d5cd        ..      BPL      0x127e ; ZS_GetReceiverInfo + 26
        0x000012e2:    4648        HF      MOV      r0,r9
        0x000012e4:    e7f2        ..      B        0x12cc ; ZS_GetReceiverInfo + 104
    $d
        0x000012e6:    0000        ..      DCW    0
        0x000012e8:    20000034    4..     DCD    536870964
    $t
    i.ZS_SendBinaryHeader
    ZS_SendBinaryHeader
        0x000012ec:    b570        p.      PUSH     {r4-r6,lr}
        0x000012ee:    4605        .F      MOV      r5,r0
        0x000012f0:    460c        .F      MOV      r4,r1
        0x000012f2:    202a        *       MOVS     r0,#0x2a
        0x000012f4:    f000fd8a    ....    BL       zmputchar ; 0x1e0c
        0x000012f8:    2018        .       MOVS     r0,#0x18
        0x000012fa:    f000fd87    ....    BL       zmputchar ; 0x1e0c
        0x000012fe:    2041        A       MOVS     r0,#0x41
        0x00001300:    f000fd84    ....    BL       zmputchar ; 0x1e0c
        0x00001304:    b2e8        ..      UXTB     r0,r5
        0x00001306:    f000f825    ..%.    BL       ZS_SendByte ; 0x1354
        0x0000130a:    2100        .!      MOVS     r1,#0
        0x0000130c:    4628        (F      MOV      r0,r5
        0x0000130e:    f000fb3f    ..?.    BL       Z_UpdateCRC ; 0x1990
        0x00001312:    4606        .F      MOV      r6,r0
        0x00001314:    2504        .%      MOVS     r5,#4
        0x00001316:    e008        ..      B        0x132a ; ZS_SendBinaryHeader + 62
        0x00001318:    7820         x      LDRB     r0,[r4,#0]
        0x0000131a:    f000f81b    ....    BL       ZS_SendByte ; 0x1354
        0x0000131e:    f8140b01    ....    LDRB     r0,[r4],#1
        0x00001322:    4631        1F      MOV      r1,r6
        0x00001324:    f000fb34    ..4.    BL       Z_UpdateCRC ; 0x1990
        0x00001328:    4606        .F      MOV      r6,r0
        0x0000132a:    1e6d        m.      SUBS     r5,r5,#1
        0x0000132c:    d5f4        ..      BPL      0x1318 ; ZS_SendBinaryHeader + 44
        0x0000132e:    4601        .F      MOV      r1,r0
        0x00001330:    2000        .       MOVS     r0,#0
        0x00001332:    f000fb2d    ..-.    BL       Z_UpdateCRC ; 0x1990
        0x00001336:    4601        .F      MOV      r1,r0
        0x00001338:    2000        .       MOVS     r0,#0
        0x0000133a:    f000fb29    ..).    BL       Z_UpdateCRC ; 0x1990
        0x0000133e:    4604        .F      MOV      r4,r0
        0x00001340:    f3c02007    ...     UBFX     r0,r0,#8,#8
        0x00001344:    f000f806    ....    BL       ZS_SendByte ; 0x1354
        0x00001348:    b2e0        ..      UXTB     r0,r4
        0x0000134a:    e8bd4070    ..p@    POP      {r4-r6,lr}
        0x0000134e:    f000b801    ....    B.W      ZS_SendByte ; 0x1354
        0x00001352:    0000        ..      MOVS     r0,r0
    i.ZS_SendByte
    ZS_SendByte
        0x00001354:    b570        p.      PUSH     {r4-r6,lr}
        0x00001356:    4d13        .M      LDR      r5,[pc,#76] ; [0x13a4] = 0x20000034
        0x00001358:    4604        .F      MOV      r4,r0
        0x0000135a:    2818        .(      CMP      r0,#0x18
        0x0000135c:    d017        ..      BEQ      0x138e ; ZS_SendByte + 58
        0x0000135e:    dc08        ..      BGT      0x1372 ; ZS_SendByte + 30
        0x00001360:    2c0d        .,      CMP      r4,#0xd
        0x00001362:    d00f        ..      BEQ      0x1384 ; ZS_SendByte + 48
        0x00001364:    2c10        .,      CMP      r4,#0x10
        0x00001366:    d012        ..      BEQ      0x138e ; ZS_SendByte + 58
        0x00001368:    2c11        .,      CMP      r4,#0x11
        0x0000136a:    d010        ..      BEQ      0x138e ; ZS_SendByte + 58
        0x0000136c:    2c13        .,      CMP      r4,#0x13
        0x0000136e:    d113        ..      BNE      0x1398 ; ZS_SendByte + 68
        0x00001370:    e00d        ..      B        0x138e ; ZS_SendByte + 58
        0x00001372:    2c8d        .,      CMP      r4,#0x8d
        0x00001374:    d006        ..      BEQ      0x1384 ; ZS_SendByte + 48
        0x00001376:    2c90        .,      CMP      r4,#0x90
        0x00001378:    d009        ..      BEQ      0x138e ; ZS_SendByte + 58
        0x0000137a:    2c91        .,      CMP      r4,#0x91
        0x0000137c:    d007        ..      BEQ      0x138e ; ZS_SendByte + 58
        0x0000137e:    2c93        .,      CMP      r4,#0x93
        0x00001380:    d10a        ..      BNE      0x1398 ; ZS_SendByte + 68
        0x00001382:    e004        ..      B        0x138e ; ZS_SendByte + 58
        0x00001384:    7868        hx      LDRB     r0,[r5,#1]
        0x00001386:    f000007f    ....    AND      r0,r0,#0x7f
        0x0000138a:    2840        @(      CMP      r0,#0x40
        0x0000138c:    d104        ..      BNE      0x1398 ; ZS_SendByte + 68
        0x0000138e:    2018        .       MOVS     r0,#0x18
        0x00001390:    f000fd3c    ..<.    BL       zmputchar ; 0x1e0c
        0x00001394:    f0840440    ..@.    EOR      r4,r4,#0x40
        0x00001398:    706c        lp      STRB     r4,[r5,#1]
        0x0000139a:    4620         F      MOV      r0,r4
        0x0000139c:    e8bd4070    ..p@    POP      {r4-r6,lr}
        0x000013a0:    f000bd34    ..4.    B.W      zmputchar ; 0x1e0c
    $d
        0x000013a4:    20000034    4..     DCD    536870964
    $t
    i.ZS_SendData
    ZS_SendData
        0x000013a8:    e92d41f0    -..A    PUSH     {r4-r8,lr}
        0x000013ac:    4690        .F      MOV      r8,r2
        0x000013ae:    460e        .F      MOV      r6,r1
        0x000013b0:    4604        .F      MOV      r4,r0
        0x000013b2:    2500        .%      MOVS     r5,#0
        0x000013b4:    e00b        ..      B        0x13ce ; ZS_SendData + 38
        0x000013b6:    4620         F      MOV      r0,r4
        0x000013b8:    1c64        d.      ADDS     r4,r4,#1
        0x000013ba:    f7fffb81    ....    BL       OneSramByte ; 0xac0
        0x000013be:    4607        .F      MOV      r7,r0
        0x000013c0:    f7ffffc8    ....    BL       ZS_SendByte ; 0x1354
        0x000013c4:    4629        )F      MOV      r1,r5
        0x000013c6:    4638        8F      MOV      r0,r7
        0x000013c8:    f000fae2    ....    BL       Z_UpdateCRC ; 0x1990
        0x000013cc:    4605        .F      MOV      r5,r0
        0x000013ce:    42b4        .B      CMP      r4,r6
        0x000013d0:    dbf1        ..      BLT      0x13b6 ; ZS_SendData + 14
        0x000013d2:    2018        .       MOVS     r0,#0x18
        0x000013d4:    f000fd1a    ....    BL       zmputchar ; 0x1e0c
        0x000013d8:    f00800ff    ....    AND      r0,r8,#0xff
        0x000013dc:    f000fd16    ....    BL       zmputchar ; 0x1e0c
        0x000013e0:    4629        )F      MOV      r1,r5
        0x000013e2:    4640        @F      MOV      r0,r8
        0x000013e4:    f000fad4    ....    BL       Z_UpdateCRC ; 0x1990
        0x000013e8:    4601        .F      MOV      r1,r0
        0x000013ea:    2000        .       MOVS     r0,#0
        0x000013ec:    f000fad0    ....    BL       Z_UpdateCRC ; 0x1990
        0x000013f0:    4601        .F      MOV      r1,r0
        0x000013f2:    2000        .       MOVS     r0,#0
        0x000013f4:    f000facc    ....    BL       Z_UpdateCRC ; 0x1990
        0x000013f8:    4604        .F      MOV      r4,r0
        0x000013fa:    f3c02007    ...     UBFX     r0,r0,#8,#8
        0x000013fe:    f7ffffa9    ....    BL       ZS_SendByte ; 0x1354
        0x00001402:    b2e0        ..      UXTB     r0,r4
        0x00001404:    e8bd41f0    ...A    POP      {r4-r8,lr}
        0x00001408:    f7ffbfa4    ....    B.W      ZS_SendByte ; 0x1354
    i.ZS_SendFile
    ZS_SendFile
        0x0000140c:    e92d47f0    -..G    PUSH     {r4-r10,lr}
        0x00001410:    2600        .&      MOVS     r6,#0
        0x00001412:    4f1c        .O      LDR      r7,[pc,#112] ; [0x1484] = 0x20000058
        0x00001414:    1ef4        ..      SUBS     r4,r6,#3
        0x00001416:    4688        .F      MOV      r8,r1
        0x00001418:    4681        .F      MOV      r9,r0
        0x0000141a:    1065        e.      ASRS     r5,r4,#1
        0x0000141c:    70fe        .p      STRB     r6,[r7,#3]
        0x0000141e:    70be        .p      STRB     r6,[r7,#2]
        0x00001420:    707e        ~p      STRB     r6,[r7,#1]
        0x00001422:    703e        >p      STRB     r6,[r7,#0]
        0x00001424:    4917        .I      LDR      r1,[pc,#92] ; [0x1484] = 0x20000058
        0x00001426:    2004        .       MOVS     r0,#4
        0x00001428:    f7ffff60    ..`.    BL       ZS_SendBinaryHeader ; 0x12ec
        0x0000142c:    4641        AF      MOV      r1,r8
        0x0000142e:    4648        HF      MOV      r0,r9
        0x00001430:    f000f882    ....    BL       ZS_SendFileName ; 0x1538
        0x00001434:    4813        .H      LDR      r0,[pc,#76] ; [0x1484] = 0x20000058
        0x00001436:    1f00        ..      SUBS     r0,r0,#4
        0x00001438:    f000f980    ....    BL       Z_GetHeader ; 0x173c
        0x0000143c:    2807        .(      CMP      r0,#7
        0x0000143e:    d012        ..      BEQ      0x1466 ; ZS_SendFile + 90
        0x00001440:    dc09        ..      BGT      0x1456 ; ZS_SendFile + 74
        0x00001442:    42a0        .B      CMP      r0,r4
        0x00001444:    d00f        ..      BEQ      0x1466 ; ZS_SendFile + 90
        0x00001446:    42a8        .B      CMP      r0,r5
        0x00001448:    d00d        ..      BEQ      0x1466 ; ZS_SendFile + 90
        0x0000144a:    2801        .(      CMP      r0,#1
        0x0000144c:    d0f2        ..      BEQ      0x1434 ; ZS_SendFile + 40
        0x0000144e:    2805        .(      CMP      r0,#5
        0x00001450:    d1e4        ..      BNE      0x141c ; ZS_SendFile + 16
        0x00001452:    e8bd87f0    ....    POP      {r4-r10,pc}
        0x00001456:    2808        .(      CMP      r0,#8
        0x00001458:    d005        ..      BEQ      0x1466 ; ZS_SendFile + 90
        0x0000145a:    2809        .(      CMP      r0,#9
        0x0000145c:    d006        ..      BEQ      0x146c ; ZS_SendFile + 96
        0x0000145e:    280d        .(      CMP      r0,#0xd
        0x00001460:    d001        ..      BEQ      0x1466 ; ZS_SendFile + 90
        0x00001462:    2810        .(      CMP      r0,#0x10
        0x00001464:    d1da        ..      BNE      0x141c ; ZS_SendFile + 16
        0x00001466:    f04f30ff    O..0    MOV      r0,#0xffffffff
        0x0000146a:    e7f2        ..      B        0x1452 ; ZS_SendFile + 70
        0x0000146c:    4805        .H      LDR      r0,[pc,#20] ; [0x1484] = 0x20000058
        0x0000146e:    3824        $8      SUBS     r0,r0,#0x24
        0x00001470:    6a81        .j      LDR      r1,[r0,#0x28]
        0x00001472:    6341        Ac      STR      r1,[r0,#0x34]
        0x00001474:    4640        @F      MOV      r0,r8
        0x00001476:    e8bd47f0    ...G    POP      {r4-r10,lr}
        0x0000147a:    f44f6180    O..a    MOV      r1,#0x400
        0x0000147e:    f000b803    ....    B.W      ZS_SendFileData ; 0x1488
    $d
        0x00001482:    0000        ..      DCW    0
        0x00001484:    20000058    X..     DCD    536871000
    $t
    i.ZS_SendFileData
    ZS_SendFileData
        0x00001488:    e92d47f0    -..G    PUSH     {r4-r10,lr}
        0x0000148c:    4a29        )J      LDR      r2,[pc,#164] ; [0x1534] = 0x20000034
        0x0000148e:    4607        .F      MOV      r7,r0
        0x00001490:    6850        Ph      LDR      r0,[r2,#4]
        0x00001492:    b110        ..      CBZ      r0,0x149a ; ZS_SendFileData + 18
        0x00001494:    4281        .B      CMP      r1,r0
        0x00001496:    dd00        ..      BLE      0x149a ; ZS_SendFileData + 18
        0x00001498:    4601        .F      MOV      r1,r0
        0x0000149a:    460e        .F      MOV      r6,r1
        0x0000149c:    f04f39ff    O..9    MOV      r9,#0xffffffff
        0x000014a0:    4690        .F      MOV      r8,r2
        0x000014a2:    e009        ..      B        0x14b8 ; ZS_SendFileData + 48
        0x000014a4:    f000f90c    ....    BL       ZS_SyncWithReceiver ; 0x16c0
        0x000014a8:    2801        .(      CMP      r0,#1
        0x000014aa:    d03f        ?.      BEQ      0x152c ; ZS_SendFileData + 164
        0x000014ac:    2803        .(      CMP      r0,#3
        0x000014ae:    d003        ..      BEQ      0x14b8 ; ZS_SendFileData + 48
        0x000014b0:    2805        .(      CMP      r0,#5
        0x000014b2:    d137        7.      BNE      0x1524 ; ZS_SendFileData + 156
        0x000014b4:    e8bd87f0    ....    POP      {r4-r10,pc}
        0x000014b8:    4644        DF      MOV      r4,r8
        0x000014ba:    f8d80034    ..4.    LDR      r0,[r8,#0x34]
        0x000014be:    f000f9ef    ....    BL       Z_PutLongIntoHeader ; 0x18a0
        0x000014c2:    491c        .I      LDR      r1,[pc,#112] ; [0x1534] = 0x20000034
        0x000014c4:    200a        .       MOVS     r0,#0xa
        0x000014c6:    3124        $1      ADDS     r1,r1,#0x24
        0x000014c8:    f7ffff10    ....    BL       ZS_SendBinaryHeader ; 0x12ec
        0x000014cc:    46a0        .F      MOV      r8,r4
        0x000014ce:    4634        4F      MOV      r4,r6
        0x000014d0:    f8d80034    ..4.    LDR      r0,[r8,#0x34]
        0x000014d4:    1902        ..      ADDS     r2,r0,r4
        0x000014d6:    42ba        .B      CMP      r2,r7
        0x000014d8:    dd00        ..      BLE      0x14dc ; ZS_SendFileData + 84
        0x000014da:    1a3c        <.      SUBS     r4,r7,r0
        0x000014dc:    42b4        .B      CMP      r4,r6
        0x000014de:    da01        ..      BGE      0x14e4 ; ZS_SendFileData + 92
        0x000014e0:    2568        h%      MOVS     r5,#0x68
        0x000014e2:    e000        ..      B        0x14e6 ; ZS_SendFileData + 94
        0x000014e4:    2569        i%      MOVS     r5,#0x69
        0x000014e6:    462a        *F      MOV      r2,r5
        0x000014e8:    1901        ..      ADDS     r1,r0,r4
        0x000014ea:    f7ffff5d    ..].    BL       ZS_SendData ; 0x13a8
        0x000014ee:    f8d80034    ..4.    LDR      r0,[r8,#0x34]
        0x000014f2:    1901        ..      ADDS     r1,r0,r4
        0x000014f4:    4640        @F      MOV      r0,r8
        0x000014f6:    f8c81034    ..4.    STR      r1,[r8,#0x34]
        0x000014fa:    2d6b        k-      CMP      r5,#0x6b
        0x000014fc:    d0d2        ..      BEQ      0x14a4 ; ZS_SendFileData + 28
        0x000014fe:    2d69        i-      CMP      r5,#0x69
        0x00001500:    d0e5        ..      BEQ      0x14ce ; ZS_SendFileData + 70
        0x00001502:    4605        .F      MOV      r5,r0
        0x00001504:    6b68        hk      LDR      r0,[r5,#0x34]
        0x00001506:    f000f9cb    ....    BL       Z_PutLongIntoHeader ; 0x18a0
        0x0000150a:    490a        .I      LDR      r1,[pc,#40] ; [0x1534] = 0x20000034
        0x0000150c:    200b        .       MOVS     r0,#0xb
        0x0000150e:    3124        $1      ADDS     r1,r1,#0x24
        0x00001510:    f7fffeec    ....    BL       ZS_SendBinaryHeader ; 0x12ec
        0x00001514:    f000f8d4    ....    BL       ZS_SyncWithReceiver ; 0x16c0
        0x00001518:    2801        .(      CMP      r0,#1
        0x0000151a:    d007        ..      BEQ      0x152c ; ZS_SendFileData + 164
        0x0000151c:    2803        .(      CMP      r0,#3
        0x0000151e:    d0f1        ..      BEQ      0x1504 ; ZS_SendFileData + 124
        0x00001520:    2805        .(      CMP      r0,#5
        0x00001522:    d005        ..      BEQ      0x1530 ; ZS_SendFileData + 168
        0x00001524:    2809        .(      CMP      r0,#9
        0x00001526:    d0c7        ..      BEQ      0x14b8 ; ZS_SendFileData + 48
        0x00001528:    4648        HF      MOV      r0,r9
        0x0000152a:    e7c3        ..      B        0x14b4 ; ZS_SendFileData + 44
        0x0000152c:    2000        .       MOVS     r0,#0
        0x0000152e:    e7c1        ..      B        0x14b4 ; ZS_SendFileData + 44
        0x00001530:    4620         F      MOV      r0,r4
        0x00001532:    e7bf        ..      B        0x14b4 ; ZS_SendFileData + 44
    $d
        0x00001534:    20000034    4..     DCD    536870964
    $t
    i.ZS_SendFileName
    ZS_SendFileName
        0x00001538:    b57f        ..      PUSH     {r0-r6,lr}
        0x0000153a:    4604        .F      MOV      r4,r0
        0x0000153c:    a05a        Z.      ADR      r0,{pc}+0x16c ; 0x16a8
        0x0000153e:    2500        .%      MOVS     r5,#0
        0x00001540:    c84d        M.      LDM      r0,{r0,r2,r3,r6}
        0x00001542:    e88d004d    ..M.    STM      sp,{r0,r2,r3,r6}
        0x00001546:    4b5c        \K      LDR      r3,[pc,#368] ; [0x16b8] = 0xfffe7960
        0x00001548:    4668        hF      MOV      r0,sp
        0x0000154a:    425e        ^B      RSBS     r6,r3,#0
        0x0000154c:    e003        ..      B        0x1556 ; ZS_SendFileName + 30
        0x0000154e:    7802        .x      LDRB     r2,[r0,#0]
        0x00001550:    4419        .D      ADD      r1,r1,r3
        0x00001552:    1c52        R.      ADDS     r2,r2,#1
        0x00001554:    7002        .p      STRB     r2,[r0,#0]
        0x00001556:    42b1        .B      CMP      r1,r6
        0x00001558:    daf9        ..      BGE      0x154e ; ZS_SendFileName + 22
        0x0000155a:    4603        .F      MOV      r3,r0
        0x0000155c:    4298        .B      CMP      r0,r3
        0x0000155e:    d102        ..      BNE      0x1566 ; ZS_SendFileName + 46
        0x00001560:    7802        .x      LDRB     r2,[r0,#0]
        0x00001562:    2a30        0*      CMP      r2,#0x30
        0x00001564:    d000        ..      BEQ      0x1568 ; ZS_SendFileName + 48
        0x00001566:    1c40        @.      ADDS     r0,r0,#1
        0x00001568:    f2427610    B..v    MOV      r6,#0x2710
        0x0000156c:    42b1        .B      CMP      r1,r6
        0x0000156e:    db06        ..      BLT      0x157e ; ZS_SendFileName + 70
        0x00001570:    7802        .x      LDRB     r2,[r0,#0]
        0x00001572:    f5a1511c    ...Q    SUB      r1,r1,#0x2700
        0x00001576:    1c52        R.      ADDS     r2,r2,#1
        0x00001578:    7002        .p      STRB     r2,[r0,#0]
        0x0000157a:    3910        .9      SUBS     r1,r1,#0x10
        0x0000157c:    e7f6        ..      B        0x156c ; ZS_SendFileName + 52
        0x0000157e:    4298        .B      CMP      r0,r3
        0x00001580:    d102        ..      BNE      0x1588 ; ZS_SendFileName + 80
        0x00001582:    7802        .x      LDRB     r2,[r0,#0]
        0x00001584:    2a30        0*      CMP      r2,#0x30
        0x00001586:    d000        ..      BEQ      0x158a ; ZS_SendFileName + 82
        0x00001588:    1c40        @.      ADDS     r0,r0,#1
        0x0000158a:    f44f767a    O.zv    MOV      r6,#0x3e8
        0x0000158e:    42b1        .B      CMP      r1,r6
        0x00001590:    db05        ..      BLT      0x159e ; ZS_SendFileName + 102
        0x00001592:    7802        .x      LDRB     r2,[r0,#0]
        0x00001594:    f5a1717a    ..zq    SUB      r1,r1,#0x3e8
        0x00001598:    1c52        R.      ADDS     r2,r2,#1
        0x0000159a:    7002        .p      STRB     r2,[r0,#0]
        0x0000159c:    e7f7        ..      B        0x158e ; ZS_SendFileName + 86
        0x0000159e:    4298        .B      CMP      r0,r3
        0x000015a0:    d102        ..      BNE      0x15a8 ; ZS_SendFileName + 112
        0x000015a2:    7802        .x      LDRB     r2,[r0,#0]
        0x000015a4:    2a30        0*      CMP      r2,#0x30
        0x000015a6:    d005        ..      BEQ      0x15b4 ; ZS_SendFileName + 124
        0x000015a8:    1c40        @.      ADDS     r0,r0,#1
        0x000015aa:    e003        ..      B        0x15b4 ; ZS_SendFileName + 124
        0x000015ac:    7802        .x      LDRB     r2,[r0,#0]
        0x000015ae:    1c52        R.      ADDS     r2,r2,#1
        0x000015b0:    7002        .p      STRB     r2,[r0,#0]
        0x000015b2:    3964        d9      SUBS     r1,r1,#0x64
        0x000015b4:    2964        d)      CMP      r1,#0x64
        0x000015b6:    daf9        ..      BGE      0x15ac ; ZS_SendFileName + 116
        0x000015b8:    4298        .B      CMP      r0,r3
        0x000015ba:    d102        ..      BNE      0x15c2 ; ZS_SendFileName + 138
        0x000015bc:    7802        .x      LDRB     r2,[r0,#0]
        0x000015be:    2a30        0*      CMP      r2,#0x30
        0x000015c0:    d005        ..      BEQ      0x15ce ; ZS_SendFileName + 150
        0x000015c2:    1c40        @.      ADDS     r0,r0,#1
        0x000015c4:    e003        ..      B        0x15ce ; ZS_SendFileName + 150
        0x000015c6:    7802        .x      LDRB     r2,[r0,#0]
        0x000015c8:    1c52        R.      ADDS     r2,r2,#1
        0x000015ca:    7002        .p      STRB     r2,[r0,#0]
        0x000015cc:    390a        .9      SUBS     r1,r1,#0xa
        0x000015ce:    290a        .)      CMP      r1,#0xa
        0x000015d0:    daf9        ..      BGE      0x15c6 ; ZS_SendFileName + 142
        0x000015d2:    4298        .B      CMP      r0,r3
        0x000015d4:    d102        ..      BNE      0x15dc ; ZS_SendFileName + 164
        0x000015d6:    7802        .x      LDRB     r2,[r0,#0]
        0x000015d8:    2a30        0*      CMP      r2,#0x30
        0x000015da:    d005        ..      BEQ      0x15e8 ; ZS_SendFileName + 176
        0x000015dc:    1c40        @.      ADDS     r0,r0,#1
        0x000015de:    e003        ..      B        0x15e8 ; ZS_SendFileName + 176
        0x000015e0:    7802        .x      LDRB     r2,[r0,#0]
        0x000015e2:    1c52        R.      ADDS     r2,r2,#1
        0x000015e4:    7002        .p      STRB     r2,[r0,#0]
        0x000015e6:    1e49        I.      SUBS     r1,r1,#1
        0x000015e8:    2901        .)      CMP      r1,#1
        0x000015ea:    daf9        ..      BGE      0x15e0 ; ZS_SendFileName + 168
        0x000015ec:    4b33        3K      LDR      r3,[pc,#204] ; [0x16bc] = 0x20000034
        0x000015ee:    2220         "      MOVS     r2,#0x20
        0x000015f0:    7042        Bp      STRB     r2,[r0,#1]
        0x000015f2:    6899        .h      LDR      r1,[r3,#8]
        0x000015f4:    1c49        I.      ADDS     r1,r1,#1
        0x000015f6:    1c80        ..      ADDS     r0,r0,#2
        0x000015f8:    6099        .`      STR      r1,[r3,#8]
        0x000015fa:    e005        ..      B        0x1608 ; ZS_SendFileName + 208
        0x000015fc:    3964        d9      SUBS     r1,r1,#0x64
        0x000015fe:    6099        .`      STR      r1,[r3,#8]
        0x00001600:    7801        .x      LDRB     r1,[r0,#0]
        0x00001602:    1c49        I.      ADDS     r1,r1,#1
        0x00001604:    7001        .p      STRB     r1,[r0,#0]
        0x00001606:    6899        .h      LDR      r1,[r3,#8]
        0x00001608:    2964        d)      CMP      r1,#0x64
        0x0000160a:    daf7        ..      BGE      0x15fc ; ZS_SendFileName + 196
        0x0000160c:    1c40        @.      ADDS     r0,r0,#1
        0x0000160e:    e004        ..      B        0x161a ; ZS_SendFileName + 226
        0x00001610:    390a        .9      SUBS     r1,r1,#0xa
        0x00001612:    6099        .`      STR      r1,[r3,#8]
        0x00001614:    7801        .x      LDRB     r1,[r0,#0]
        0x00001616:    1c49        I.      ADDS     r1,r1,#1
        0x00001618:    7001        .p      STRB     r1,[r0,#0]
        0x0000161a:    6899        .h      LDR      r1,[r3,#8]
        0x0000161c:    290a        .)      CMP      r1,#0xa
        0x0000161e:    daf7        ..      BGE      0x1610 ; ZS_SendFileName + 216
        0x00001620:    1c40        @.      ADDS     r0,r0,#1
        0x00001622:    e004        ..      B        0x162e ; ZS_SendFileName + 246
        0x00001624:    1e49        I.      SUBS     r1,r1,#1
        0x00001626:    6099        .`      STR      r1,[r3,#8]
        0x00001628:    7801        .x      LDRB     r1,[r0,#0]
        0x0000162a:    1c49        I.      ADDS     r1,r1,#1
        0x0000162c:    7001        .p      STRB     r1,[r0,#0]
        0x0000162e:    6899        .h      LDR      r1,[r3,#8]
        0x00001630:    2901        .)      CMP      r1,#1
        0x00001632:    daf7        ..      BGE      0x1624 ; ZS_SendFileName + 236
        0x00001634:    7042        Bp      STRB     r2,[r0,#1]
        0x00001636:    2130        0!      MOVS     r1,#0x30
        0x00001638:    7081        .p      STRB     r1,[r0,#2]
        0x0000163a:    2100        .!      MOVS     r1,#0
        0x0000163c:    70c1        .p      STRB     r1,[r0,#3]
        0x0000163e:    7820         x      LDRB     r0,[r4,#0]
        0x00001640:    f7fffe88    ....    BL       ZS_SendByte ; 0x1354
        0x00001644:    7820         x      LDRB     r0,[r4,#0]
        0x00001646:    4629        )F      MOV      r1,r5
        0x00001648:    f000f9a2    ....    BL       Z_UpdateCRC ; 0x1990
        0x0000164c:    4605        .F      MOV      r5,r0
        0x0000164e:    7820         x      LDRB     r0,[r4,#0]
        0x00001650:    b108        ..      CBZ      r0,0x1656 ; ZS_SendFileName + 286
        0x00001652:    1c64        d.      ADDS     r4,r4,#1
        0x00001654:    e7f3        ..      B        0x163e ; ZS_SendFileName + 262
        0x00001656:    466c        lF      MOV      r4,sp
        0x00001658:    7820         x      LDRB     r0,[r4,#0]
        0x0000165a:    f7fffe7b    ..{.    BL       ZS_SendByte ; 0x1354
        0x0000165e:    7820         x      LDRB     r0,[r4,#0]
        0x00001660:    4629        )F      MOV      r1,r5
        0x00001662:    f000f995    ....    BL       Z_UpdateCRC ; 0x1990
        0x00001666:    4605        .F      MOV      r5,r0
        0x00001668:    7820         x      LDRB     r0,[r4,#0]
        0x0000166a:    b108        ..      CBZ      r0,0x1670 ; ZS_SendFileName + 312
        0x0000166c:    1c64        d.      ADDS     r4,r4,#1
        0x0000166e:    e7f3        ..      B        0x1658 ; ZS_SendFileName + 288
        0x00001670:    2018        .       MOVS     r0,#0x18
        0x00001672:    f000fbcb    ....    BL       zmputchar ; 0x1e0c
        0x00001676:    206b        k       MOVS     r0,#0x6b
        0x00001678:    f000fbc8    ....    BL       zmputchar ; 0x1e0c
        0x0000167c:    4629        )F      MOV      r1,r5
        0x0000167e:    206b        k       MOVS     r0,#0x6b
        0x00001680:    f000f986    ....    BL       Z_UpdateCRC ; 0x1990
        0x00001684:    4601        .F      MOV      r1,r0
        0x00001686:    2000        .       MOVS     r0,#0
        0x00001688:    f000f982    ....    BL       Z_UpdateCRC ; 0x1990
        0x0000168c:    4601        .F      MOV      r1,r0
        0x0000168e:    2000        .       MOVS     r0,#0
        0x00001690:    f000f97e    ..~.    BL       Z_UpdateCRC ; 0x1990
        0x00001694:    4604        .F      MOV      r4,r0
        0x00001696:    f3c02007    ...     UBFX     r0,r0,#8,#8
        0x0000169a:    f7fffe5b    ..[.    BL       ZS_SendByte ; 0x1354
        0x0000169e:    b2e0        ..      UXTB     r0,r4
        0x000016a0:    f7fffe58    ..X.    BL       ZS_SendByte ; 0x1354
        0x000016a4:    bd7f        ..      POP      {r0-r6,pc}
    $d
        0x000016a6:    0000        ..      DCW    0
        0x000016a8:    30303030    0000    DCD    808464432
        0x000016ac:    30303030    0000    DCD    808464432
        0x000016b0:    30303020     000    DCD    808464416
        0x000016b4:    00003020     0..    DCD    12320
        0x000016b8:    fffe7960    `y..    DCD    4294867296
        0x000016bc:    20000034    4..     DCD    536870964
    $t
    i.ZS_SyncWithReceiver
    ZS_SyncWithReceiver
        0x000016c0:    b570        p.      PUSH     {r4-r6,lr}
        0x000016c2:    2407        .$      MOVS     r4,#7
        0x000016c4:    f06f0502    o...    MVN      r5,#2
        0x000016c8:    106e        n.      ASRS     r6,r5,#1
        0x000016ca:    4814        .H      LDR      r0,[pc,#80] ; [0x171c] = 0x20000054
        0x000016cc:    f000f836    ..6.    BL       Z_GetHeader ; 0x173c
        0x000016d0:    2805        .(      CMP      r0,#5
        0x000016d2:    d008        ..      BEQ      0x16e6 ; ZS_SyncWithReceiver + 38
        0x000016d4:    dc08        ..      BGT      0x16e8 ; ZS_SyncWithReceiver + 40
        0x000016d6:    42a8        .B      CMP      r0,r5
        0x000016d8:    d018        ..      BEQ      0x170c ; ZS_SyncWithReceiver + 76
        0x000016da:    42b0        .B      CMP      r0,r6
        0x000016dc:    d012        ..      BEQ      0x1704 ; ZS_SyncWithReceiver + 68
        0x000016de:    2801        .(      CMP      r0,#1
        0x000016e0:    d001        ..      BEQ      0x16e6 ; ZS_SyncWithReceiver + 38
        0x000016e2:    2803        .(      CMP      r0,#3
        0x000016e4:    d108        ..      BNE      0x16f8 ; ZS_SyncWithReceiver + 56
        0x000016e6:    bd70        p.      POP      {r4-r6,pc}
        0x000016e8:    2807        .(      CMP      r0,#7
        0x000016ea:    d00f        ..      BEQ      0x170c ; ZS_SyncWithReceiver + 76
        0x000016ec:    2808        .(      CMP      r0,#8
        0x000016ee:    d00d        ..      BEQ      0x170c ; ZS_SyncWithReceiver + 76
        0x000016f0:    2809        .(      CMP      r0,#9
        0x000016f2:    d00e        ..      BEQ      0x1712 ; ZS_SyncWithReceiver + 82
        0x000016f4:    2810        .(      CMP      r0,#0x10
        0x000016f6:    d009        ..      BEQ      0x170c ; ZS_SyncWithReceiver + 76
        0x000016f8:    4908        .I      LDR      r1,[pc,#32] ; [0x171c] = 0x20000054
        0x000016fa:    2006        .       MOVS     r0,#6
        0x000016fc:    1d09        ..      ADDS     r1,r1,#4
        0x000016fe:    f7fffdf5    ....    BL       ZS_SendBinaryHeader ; 0x12ec
        0x00001702:    e7e2        ..      B        0x16ca ; ZS_SyncWithReceiver + 10
        0x00001704:    0020         .      MOVS     r0,r4
        0x00001706:    f1a00401    ....    SUB      r4,r0,#1
        0x0000170a:    d5de        ..      BPL      0x16ca ; ZS_SyncWithReceiver + 10
        0x0000170c:    f04f30ff    O..0    MOV      r0,#0xffffffff
        0x00001710:    bd70        p.      POP      {r4-r6,pc}
        0x00001712:    4902        .I      LDR      r1,[pc,#8] ; [0x171c] = 0x20000054
        0x00001714:    3920         9      SUBS     r1,r1,#0x20
        0x00001716:    6a8a        .j      LDR      r2,[r1,#0x28]
        0x00001718:    634a        Jc      STR      r2,[r1,#0x34]
        0x0000171a:    bd70        p.      POP      {r4-r6,pc}
    $d
        0x0000171c:    20000054    T..     DCD    536870996
    $t
    i.Z_ClearByte
    Z_ClearByte
        0x00001720:    b510        ..      PUSH     {r4,lr}
        0x00001722:    2121        !!      MOVS     r1,#0x21
        0x00001724:    4804        .H      LDR      r0,[pc,#16] ; [0x1738] = 0x20000890
        0x00001726:    f7fefeb4    ....    BL       __aeabi_memclr ; 0x492
        0x0000172a:    4803        .H      LDR      r0,[pc,#12] ; [0x1738] = 0x20000890
        0x0000172c:    2140        @!      MOVS     r1,#0x40
        0x0000172e:    e8bd4010    ...@    POP      {r4,lr}
        0x00001732:    3021        !0      ADDS     r0,r0,#0x21
        0x00001734:    f7febead    ....    B        __aeabi_memclr ; 0x492
    $d
        0x00001738:    20000890    ...     DCD    536873104
    $t
    i.Z_GetHeader
    Z_GetHeader
        0x0000173c:    e92d47f0    -..G    PUSH     {r4-r10,lr}
        0x00001740:    260a        .&      MOVS     r6,#0xa
        0x00001742:    2405        .$      MOVS     r4,#5
        0x00001744:    4f2d        -O      LDR      r7,[pc,#180] ; [0x17fc] = 0x20000034
        0x00001746:    4682        .F      MOV      r10,r0
        0x00001748:    f04f0900    O...    MOV      r9,#0
        0x0000174c:    f06f0802    o...    MVN      r8,#2
        0x00001750:    1fe5        ..      SUBS     r5,r4,#7
        0x00001752:    f8c79010    ....    STR      r9,[r7,#0x10]
        0x00001756:    f8c79014    ....    STR      r9,[r7,#0x14]
        0x0000175a:    f000f9d9    ....    BL       _Z_TimedRead ; 0x1b10
        0x0000175e:    4603        .F      MOV      r3,r0
        0x00001760:    7838        8x      LDRB     r0,[r7,#0]
        0x00001762:    b100        ..      CBZ      r0,0x1766 ; Z_GetHeader + 42
        0x00001764:    462b        +F      MOV      r3,r5
        0x00001766:    4543        CE      CMP      r3,r8
        0x00001768:    d046        F.      BEQ      0x17f8 ; Z_GetHeader + 188
        0x0000176a:    42ab        .B      CMP      r3,r5
        0x0000176c:    d044        D.      BEQ      0x17f8 ; Z_GetHeader + 188
        0x0000176e:    2b18        .+      CMP      r3,#0x18
        0x00001770:    d03e        >.      BEQ      0x17f0 ; Z_GetHeader + 180
        0x00001772:    2b2a        *+      CMP      r3,#0x2a
        0x00001774:    d009        ..      BEQ      0x178a ; Z_GetHeader + 78
        0x00001776:    1e76        v.      SUBS     r6,r6,#1
        0x00001778:    2e00        ..      CMP      r6,#0
        0x0000177a:    dc02        ..      BGT      0x1782 ; Z_GetHeader + 70
        0x0000177c:    2010        .       MOVS     r0,#0x10
        0x0000177e:    e8bd87f0    ....    POP      {r4-r10,pc}
        0x00001782:    2b18        .+      CMP      r3,#0x18
        0x00001784:    d0e5        ..      BEQ      0x1752 ; Z_GetHeader + 22
        0x00001786:    2405        .$      MOVS     r4,#5
        0x00001788:    e7e3        ..      B        0x1752 ; Z_GetHeader + 22
        0x0000178a:    2405        .$      MOVS     r4,#5
        0x0000178c:    f000f9c0    ....    BL       _Z_TimedRead ; 0x1b10
        0x00001790:    4603        .F      MOV      r3,r0
        0x00001792:    7838        8x      LDRB     r0,[r7,#0]
        0x00001794:    b100        ..      CBZ      r0,0x1798 ; Z_GetHeader + 92
        0x00001796:    462b        +F      MOV      r3,r5
        0x00001798:    4543        CE      CMP      r3,r8
        0x0000179a:    d02d        -.      BEQ      0x17f8 ; Z_GetHeader + 188
        0x0000179c:    42ab        .B      CMP      r3,r5
        0x0000179e:    d02b        +.      BEQ      0x17f8 ; Z_GetHeader + 188
        0x000017a0:    2b18        .+      CMP      r3,#0x18
        0x000017a2:    d002        ..      BEQ      0x17aa ; Z_GetHeader + 110
        0x000017a4:    2b2a        *+      CMP      r3,#0x2a
        0x000017a6:    d0f1        ..      BEQ      0x178c ; Z_GetHeader + 80
        0x000017a8:    e7e5        ..      B        0x1776 ; Z_GetHeader + 58
        0x000017aa:    f000f9b1    ....    BL       _Z_TimedRead ; 0x1b10
        0x000017ae:    4603        .F      MOV      r3,r0
        0x000017b0:    7838        8x      LDRB     r0,[r7,#0]
        0x000017b2:    b100        ..      CBZ      r0,0x17b6 ; Z_GetHeader + 122
        0x000017b4:    462b        +F      MOV      r3,r5
        0x000017b6:    2b18        .+      CMP      r3,#0x18
        0x000017b8:    d01a        ..      BEQ      0x17f0 ; Z_GetHeader + 180
        0x000017ba:    dc04        ..      BGT      0x17c6 ; Z_GetHeader + 138
        0x000017bc:    4543        CE      CMP      r3,r8
        0x000017be:    d01b        ..      BEQ      0x17f8 ; Z_GetHeader + 188
        0x000017c0:    42ab        .B      CMP      r3,r5
        0x000017c2:    d1d8        ..      BNE      0x1776 ; Z_GetHeader + 58
        0x000017c4:    e018        ..      B        0x17f8 ; Z_GetHeader + 188
        0x000017c6:    2b41        A+      CMP      r3,#0x41
        0x000017c8:    d00c        ..      BEQ      0x17e4 ; Z_GetHeader + 168
        0x000017ca:    2b42        B+      CMP      r3,#0x42
        0x000017cc:    d1d3        ..      BNE      0x1776 ; Z_GetHeader + 58
        0x000017ce:    2042        B       MOVS     r0,#0x42
        0x000017d0:    6178        xa      STR      r0,[r7,#0x14]
        0x000017d2:    4650        PF      MOV      r0,r10
        0x000017d4:    f000f94e    ..N.    BL       _Z_GetHexHeader ; 0x1a74
        0x000017d8:    4603        .F      MOV      r3,r0
        0x000017da:    4650        PF      MOV      r0,r10
        0x000017dc:    f000f98c    ....    BL       _Z_PullLongFromHeader ; 0x1af8
        0x000017e0:    62b8        .b      STR      r0,[r7,#0x28]
        0x000017e2:    e009        ..      B        0x17f8 ; Z_GetHeader + 188
        0x000017e4:    2041        A       MOVS     r0,#0x41
        0x000017e6:    6178        xa      STR      r0,[r7,#0x14]
        0x000017e8:    4650        PF      MOV      r0,r10
        0x000017ea:    f000f8e3    ....    BL       _Z_GetBinaryHeader ; 0x19b4
        0x000017ee:    e7f3        ..      B        0x17d8 ; Z_GetHeader + 156
        0x000017f0:    1e64        d.      SUBS     r4,r4,#1
        0x000017f2:    2c00        .,      CMP      r4,#0
        0x000017f4:    dcbf        ..      BGT      0x1776 ; Z_GetHeader + 58
        0x000017f6:    2310        .#      MOVS     r3,#0x10
        0x000017f8:    4618        .F      MOV      r0,r3
        0x000017fa:    e7c0        ..      B        0x177e ; Z_GetHeader + 66
    $d
        0x000017fc:    20000034    4..     DCD    536870964
    $t
    i.Z_GetZDL
    Z_GetZDL
        0x00001800:    b570        p.      PUSH     {r4-r6,lr}
        0x00001802:    f44f757a    O.zu    MOV      r5,#0x3e8
        0x00001806:    4628        (F      MOV      r0,r5
        0x00001808:    f000fa62    ..b.    BL       readline ; 0x1cd0
        0x0000180c:    4c23        #L      LDR      r4,[pc,#140] ; [0x189c] = 0x20000034
        0x0000180e:    f06f0601    o...    MVN      r6,#1
        0x00001812:    7821        !x      LDRB     r1,[r4,#0]
        0x00001814:    bb81        ..      CBNZ     r1,0x1878 ; Z_GetZDL + 120
        0x00001816:    2818        .(      CMP      r0,#0x18
        0x00001818:    d11a        ..      BNE      0x1850 ; Z_GetZDL + 80
        0x0000181a:    4628        (F      MOV      r0,r5
        0x0000181c:    f000fa58    ..X.    BL       readline ; 0x1cd0
        0x00001820:    7821        !x      LDRB     r1,[r4,#0]
        0x00001822:    bb49        I.      CBNZ     r1,0x1878 ; Z_GetZDL + 120
        0x00001824:    286a        j(      CMP      r0,#0x6a
        0x00001826:    d02e        ..      BEQ      0x1886 ; Z_GetZDL + 134
        0x00001828:    dc06        ..      BGT      0x1838 ; Z_GetZDL + 56
        0x0000182a:    2818        .(      CMP      r0,#0x18
        0x0000182c:    d011        ..      BEQ      0x1852 ; Z_GetZDL + 82
        0x0000182e:    2868        h(      CMP      r0,#0x68
        0x00001830:    d029        ).      BEQ      0x1886 ; Z_GetZDL + 134
        0x00001832:    2869        i(      CMP      r0,#0x69
        0x00001834:    d106        ..      BNE      0x1844 ; Z_GetZDL + 68
        0x00001836:    e026        &.      B        0x1886 ; Z_GetZDL + 134
        0x00001838:    286b        k(      CMP      r0,#0x6b
        0x0000183a:    d024        $.      BEQ      0x1886 ; Z_GetZDL + 134
        0x0000183c:    286c        l(      CMP      r0,#0x6c
        0x0000183e:    d025        %.      BEQ      0x188c ; Z_GetZDL + 140
        0x00001840:    286d        m(      CMP      r0,#0x6d
        0x00001842:    d025        %.      BEQ      0x1890 ; Z_GetZDL + 144
        0x00001844:    f3c01141    ..A.    UBFX     r1,r0,#5,#2
        0x00001848:    2902        .)      CMP      r1,#2
        0x0000184a:    d023        #.      BEQ      0x1894 ; Z_GetZDL + 148
        0x0000184c:    f04f30ff    O..0    MOV      r0,#0xffffffff
        0x00001850:    bd70        p.      POP      {r4-r6,pc}
        0x00001852:    4628        (F      MOV      r0,r5
        0x00001854:    f000fa3c    ..<.    BL       readline ; 0x1cd0
        0x00001858:    7821        !x      LDRB     r1,[r4,#0]
        0x0000185a:    b969        i.      CBNZ     r1,0x1878 ; Z_GetZDL + 120
        0x0000185c:    2818        .(      CMP      r0,#0x18
        0x0000185e:    d1f7        ..      BNE      0x1850 ; Z_GetZDL + 80
        0x00001860:    4628        (F      MOV      r0,r5
        0x00001862:    f000fa35    ..5.    BL       readline ; 0x1cd0
        0x00001866:    7821        !x      LDRB     r1,[r4,#0]
        0x00001868:    b931        1.      CBNZ     r1,0x1878 ; Z_GetZDL + 120
        0x0000186a:    2818        .(      CMP      r0,#0x18
        0x0000186c:    d1f0        ..      BNE      0x1850 ; Z_GetZDL + 80
        0x0000186e:    4628        (F      MOV      r0,r5
        0x00001870:    f000fa2e    ....    BL       readline ; 0x1cd0
        0x00001874:    7821        !x      LDRB     r1,[r4,#0]
        0x00001876:    b109        ..      CBZ      r1,0x187c ; Z_GetZDL + 124
        0x00001878:    4630        0F      MOV      r0,r6
        0x0000187a:    bd70        p.      POP      {r4-r6,pc}
        0x0000187c:    2818        .(      CMP      r0,#0x18
        0x0000187e:    d1fc        ..      BNE      0x187a ; Z_GetZDL + 122
        0x00001880:    f44f708c    O..p    MOV      r0,#0x118
        0x00001884:    bd70        p.      POP      {r4-r6,pc}
        0x00001886:    f4407080    @..p    ORR      r0,r0,#0x100
        0x0000188a:    bd70        p.      POP      {r4-r6,pc}
        0x0000188c:    207f        .       MOVS     r0,#0x7f
        0x0000188e:    bd70        p.      POP      {r4-r6,pc}
        0x00001890:    20ff        .       MOVS     r0,#0xff
        0x00001892:    bd70        p.      POP      {r4-r6,pc}
        0x00001894:    f0800040    ..@.    EOR      r0,r0,#0x40
        0x00001898:    bd70        p.      POP      {r4-r6,pc}
    $d
        0x0000189a:    0000        ..      DCW    0
        0x0000189c:    20000034    4..     DCD    536870964
    $t
    i.Z_PutLongIntoHeader
    Z_PutLongIntoHeader
        0x000018a0:    4904        .I      LDR      r1,[pc,#16] ; [0x18b4] = 0x20000058
        0x000018a2:    0a02        ..      LSRS     r2,r0,#8
        0x000018a4:    7008        .p      STRB     r0,[r1,#0]
        0x000018a6:    704a        Jp      STRB     r2,[r1,#1]
        0x000018a8:    0c02        ..      LSRS     r2,r0,#16
        0x000018aa:    708a        .p      STRB     r2,[r1,#2]
        0x000018ac:    0e00        ..      LSRS     r0,r0,#24
        0x000018ae:    70c8        .p      STRB     r0,[r1,#3]
        0x000018b0:    4770        pG      BX       lr
    $d
        0x000018b2:    0000        ..      DCW    0
        0x000018b4:    20000058    X..     DCD    536871000
    $t
    i.Z_SendHexHeader
    Z_SendHexHeader
        0x000018b8:    e92d47f0    -..G    PUSH     {r4-r10,lr}
        0x000018bc:    4681        .F      MOV      r9,r0
        0x000018be:    460c        .F      MOV      r4,r1
        0x000018c0:    202a        *       MOVS     r0,#0x2a
        0x000018c2:    f000faa3    ....    BL       zmputchar ; 0x1e0c
        0x000018c6:    202a        *       MOVS     r0,#0x2a
        0x000018c8:    f000faa0    ....    BL       zmputchar ; 0x1e0c
        0x000018cc:    2018        .       MOVS     r0,#0x18
        0x000018ce:    f000fa9d    ....    BL       zmputchar ; 0x1e0c
        0x000018d2:    2042        B       MOVS     r0,#0x42
        0x000018d4:    f000fa9a    ....    BL       zmputchar ; 0x1e0c
        0x000018d8:    4d2c        ,M      LDR      r5,[pc,#176] ; [0x198c] = 0x2000006c
        0x000018da:    464e        NF      MOV      r6,r9
        0x000018dc:    eb051016    ....    ADD      r0,r5,r6,LSR #4
        0x000018e0:    7800        .x      LDRB     r0,[r0,#0]
        0x000018e2:    f000fa93    ....    BL       zmputchar ; 0x1e0c
        0x000018e6:    f006000f    ....    AND      r0,r6,#0xf
        0x000018ea:    5c28        (\      LDRB     r0,[r5,r0]
        0x000018ec:    f000fa8e    ....    BL       zmputchar ; 0x1e0c
        0x000018f0:    2100        .!      MOVS     r1,#0
        0x000018f2:    4648        HF      MOV      r0,r9
        0x000018f4:    f000f84c    ..L.    BL       Z_UpdateCRC ; 0x1990
        0x000018f8:    4607        .F      MOV      r7,r0
        0x000018fa:    2604        .&      MOVS     r6,#4
        0x000018fc:    46a8        .F      MOV      r8,r5
        0x000018fe:    e011        ..      B        0x1924 ; Z_SendHexHeader + 108
        0x00001900:    7825        %x      LDRB     r5,[r4,#0]
        0x00001902:    eb081015    ....    ADD      r0,r8,r5,LSR #4
        0x00001906:    7800        .x      LDRB     r0,[r0,#0]
        0x00001908:    f000fa80    ....    BL       zmputchar ; 0x1e0c
        0x0000190c:    f005010f    ....    AND      r1,r5,#0xf
        0x00001910:    f8180001    ....    LDRB     r0,[r8,r1]
        0x00001914:    f000fa7a    ..z.    BL       zmputchar ; 0x1e0c
        0x00001918:    f8140b01    ....    LDRB     r0,[r4],#1
        0x0000191c:    4639        9F      MOV      r1,r7
        0x0000191e:    f000f837    ..7.    BL       Z_UpdateCRC ; 0x1990
        0x00001922:    4607        .F      MOV      r7,r0
        0x00001924:    1e76        v.      SUBS     r6,r6,#1
        0x00001926:    d5eb        ..      BPL      0x1900 ; Z_SendHexHeader + 72
        0x00001928:    4601        .F      MOV      r1,r0
        0x0000192a:    2000        .       MOVS     r0,#0
        0x0000192c:    f000f830    ..0.    BL       Z_UpdateCRC ; 0x1990
        0x00001930:    4601        .F      MOV      r1,r0
        0x00001932:    2000        .       MOVS     r0,#0
        0x00001934:    f000f82c    ..,.    BL       Z_UpdateCRC ; 0x1990
        0x00001938:    4606        .F      MOV      r6,r0
        0x0000193a:    f3c02407    ...$    UBFX     r4,r0,#8,#8
        0x0000193e:    eb081014    ....    ADD      r0,r8,r4,LSR #4
        0x00001942:    4645        EF      MOV      r5,r8
        0x00001944:    7800        .x      LDRB     r0,[r0,#0]
        0x00001946:    f000fa61    ..a.    BL       zmputchar ; 0x1e0c
        0x0000194a:    f004000f    ....    AND      r0,r4,#0xf
        0x0000194e:    5c28        (\      LDRB     r0,[r5,r0]
        0x00001950:    f000fa5c    ..\.    BL       zmputchar ; 0x1e0c
        0x00001954:    b2f4        ..      UXTB     r4,r6
        0x00001956:    eb051014    ....    ADD      r0,r5,r4,LSR #4
        0x0000195a:    7800        .x      LDRB     r0,[r0,#0]
        0x0000195c:    f000fa56    ..V.    BL       zmputchar ; 0x1e0c
        0x00001960:    f004000f    ....    AND      r0,r4,#0xf
        0x00001964:    5c28        (\      LDRB     r0,[r5,r0]
        0x00001966:    f000fa51    ..Q.    BL       zmputchar ; 0x1e0c
        0x0000196a:    200d        .       MOVS     r0,#0xd
        0x0000196c:    f000fa4e    ..N.    BL       zmputchar ; 0x1e0c
        0x00001970:    200a        .       MOVS     r0,#0xa
        0x00001972:    f000fa4b    ..K.    BL       zmputchar ; 0x1e0c
        0x00001976:    f1b90f08    ....    CMP      r9,#8
        0x0000197a:    d004        ..      BEQ      0x1986 ; Z_SendHexHeader + 206
        0x0000197c:    e8bd47f0    ...G    POP      {r4-r10,lr}
        0x00001980:    2011        .       MOVS     r0,#0x11
        0x00001982:    f000ba43    ..C.    B.W      zmputchar ; 0x1e0c
        0x00001986:    e8bd87f0    ....    POP      {r4-r10,pc}
    $d
        0x0000198a:    0000        ..      DCW    0
        0x0000198c:    2000006c    l..     DCD    536871020
    $t
    i.Z_UpdateCRC
    Z_UpdateCRC
        0x00001990:    b510        ..      PUSH     {r4,lr}
        0x00001992:    2208        ."      MOVS     r2,#8
        0x00001994:    f2410321    A.!.    MOV      r3,#0x1021
        0x00001998:    e008        ..      B        0x19ac ; Z_UpdateCRC + 28
        0x0000199a:    040c        ..      LSLS     r4,r1,#16
        0x0000199c:    ea4f0040    O.@.    LSL      r0,r0,#1
        0x000019a0:    f3c02400    ...$    UBFX     r4,r0,#8,#1
        0x000019a4:    eb040141    ..A.    ADD      r1,r4,r1,LSL #1
        0x000019a8:    d500        ..      BPL      0x19ac ; Z_UpdateCRC + 28
        0x000019aa:    4059        Y@      EORS     r1,r1,r3
        0x000019ac:    1e52        R.      SUBS     r2,r2,#1
        0x000019ae:    d5f4        ..      BPL      0x199a ; Z_UpdateCRC + 10
        0x000019b0:    4608        .F      MOV      r0,r1
        0x000019b2:    bd10        ..      POP      {r4,pc}
    i._Z_GetBinaryHeader
    _Z_GetBinaryHeader
        0x000019b4:    e92d41f0    -..A    PUSH     {r4-r8,lr}
        0x000019b8:    4604        .F      MOV      r4,r0
        0x000019ba:    f7ffff21    ..!.    BL       Z_GetZDL ; 0x1800
        0x000019be:    0a01        ..      LSRS     r1,r0,#8
        0x000019c0:    d10c        ..      BNE      0x19dc ; _Z_GetBinaryHeader + 40
        0x000019c2:    4e17        .N      LDR      r6,[pc,#92] ; [0x1a20] = 0x20000034
        0x000019c4:    6130        0a      STR      r0,[r6,#0x10]
        0x000019c6:    f7ffffe3    ....    BL       Z_UpdateCRC ; 0x1990
        0x000019ca:    4680        .F      MOV      r8,r0
        0x000019cc:    2504        .%      MOVS     r5,#4
        0x000019ce:    e00e        ..      B        0x19ee ; _Z_GetBinaryHeader + 58
        0x000019d0:    f7ffff16    ....    BL       Z_GetZDL ; 0x1800
        0x000019d4:    4607        .F      MOV      r7,r0
        0x000019d6:    0a00        ..      LSRS     r0,r0,#8
        0x000019d8:    d002        ..      BEQ      0x19e0 ; _Z_GetBinaryHeader + 44
        0x000019da:    4638        8F      MOV      r0,r7
        0x000019dc:    e8bd81f0    ....    POP      {r4-r8,pc}
        0x000019e0:    4641        AF      MOV      r1,r8
        0x000019e2:    4638        8F      MOV      r0,r7
        0x000019e4:    f7ffffd4    ....    BL       Z_UpdateCRC ; 0x1990
        0x000019e8:    4680        .F      MOV      r8,r0
        0x000019ea:    f8047b01    ...{    STRB     r7,[r4],#1
        0x000019ee:    1e6d        m.      SUBS     r5,r5,#1
        0x000019f0:    d5ee        ..      BPL      0x19d0 ; _Z_GetBinaryHeader + 28
        0x000019f2:    f7ffff05    ....    BL       Z_GetZDL ; 0x1800
        0x000019f6:    0a01        ..      LSRS     r1,r0,#8
        0x000019f8:    d1f0        ..      BNE      0x19dc ; _Z_GetBinaryHeader + 40
        0x000019fa:    4641        AF      MOV      r1,r8
        0x000019fc:    f7ffffc8    ....    BL       Z_UpdateCRC ; 0x1990
        0x00001a00:    4604        .F      MOV      r4,r0
        0x00001a02:    f7fffefd    ....    BL       Z_GetZDL ; 0x1800
        0x00001a06:    0a01        ..      LSRS     r1,r0,#8
        0x00001a08:    d1e8        ..      BNE      0x19dc ; _Z_GetBinaryHeader + 40
        0x00001a0a:    4621        !F      MOV      r1,r4
        0x00001a0c:    f7ffffc0    ....    BL       Z_UpdateCRC ; 0x1990
        0x00001a10:    0400        ..      LSLS     r0,r0,#16
        0x00001a12:    0c00        ..      LSRS     r0,r0,#16
        0x00001a14:    d002        ..      BEQ      0x1a1c ; _Z_GetBinaryHeader + 104
        0x00001a16:    f04f30ff    O..0    MOV      r0,#0xffffffff
        0x00001a1a:    e7df        ..      B        0x19dc ; _Z_GetBinaryHeader + 40
        0x00001a1c:    6930        0i      LDR      r0,[r6,#0x10]
        0x00001a1e:    e7dd        ..      B        0x19dc ; _Z_GetBinaryHeader + 40
    $d
        0x00001a20:    20000034    4..     DCD    536870964
    $t
    i._Z_GetHex
    _Z_GetHex
        0x00001a24:    e92d41f0    -..A    PUSH     {r4-r8,lr}
        0x00001a28:    f000f872    ..r.    BL       _Z_TimedRead ; 0x1b10
        0x00001a2c:    4d10        .M      LDR      r5,[pc,#64] ; [0x1a70] = 0x20000034
        0x00001a2e:    f06f0601    o...    MVN      r6,#1
        0x00001a32:    7829        )x      LDRB     r1,[r5,#0]
        0x00001a34:    b969        i.      CBNZ     r1,0x1a52 ; _Z_GetHex + 46
        0x00001a36:    f1a00430    ..0.    SUB      r4,r0,#0x30
        0x00001a3a:    2c09        .,      CMP      r4,#9
        0x00001a3c:    dd00        ..      BLE      0x1a40 ; _Z_GetHex + 28
        0x00001a3e:    3c27        '<      SUBS     r4,r4,#0x27
        0x00001a40:    f0140ff0    ....    TST      r4,#0xf0
        0x00001a44:    f04f37ff    O..7    MOV      r7,#0xffffffff
        0x00001a48:    d10d        ..      BNE      0x1a66 ; _Z_GetHex + 66
        0x00001a4a:    f000f861    ..a.    BL       _Z_TimedRead ; 0x1b10
        0x00001a4e:    7829        )x      LDRB     r1,[r5,#0]
        0x00001a50:    b111        ..      CBZ      r1,0x1a58 ; _Z_GetHex + 52
        0x00001a52:    4630        0F      MOV      r0,r6
        0x00001a54:    e8bd81f0    ....    POP      {r4-r8,pc}
        0x00001a58:    3830        08      SUBS     r0,r0,#0x30
        0x00001a5a:    2809        .(      CMP      r0,#9
        0x00001a5c:    dd00        ..      BLE      0x1a60 ; _Z_GetHex + 60
        0x00001a5e:    3827        '8      SUBS     r0,r0,#0x27
        0x00001a60:    f0100ff0    ....    TST      r0,#0xf0
        0x00001a64:    d001        ..      BEQ      0x1a6a ; _Z_GetHex + 70
        0x00001a66:    4638        8F      MOV      r0,r7
        0x00001a68:    e7f4        ..      B        0x1a54 ; _Z_GetHex + 48
        0x00001a6a:    ea401004    @...    ORR      r0,r0,r4,LSL #4
        0x00001a6e:    e7f1        ..      B        0x1a54 ; _Z_GetHex + 48
    $d
        0x00001a70:    20000034    4..     DCD    536870964
    $t
    i._Z_GetHexHeader
    _Z_GetHexHeader
        0x00001a74:    e92d41f0    -..A    PUSH     {r4-r8,lr}
        0x00001a78:    4604        .F      MOV      r4,r0
        0x00001a7a:    f7ffffd3    ....    BL       _Z_GetHex ; 0x1a24
        0x00001a7e:    2800        .(      CMP      r0,#0
        0x00001a80:    db27        '.      BLT      0x1ad2 ; _Z_GetHexHeader + 94
        0x00001a82:    4e1c        .N      LDR      r6,[pc,#112] ; [0x1af4] = 0x20000034
        0x00001a84:    2100        .!      MOVS     r1,#0
        0x00001a86:    6130        0a      STR      r0,[r6,#0x10]
        0x00001a88:    f7ffff82    ....    BL       Z_UpdateCRC ; 0x1990
        0x00001a8c:    4680        .F      MOV      r8,r0
        0x00001a8e:    2504        .%      MOVS     r5,#4
        0x00001a90:    e009        ..      B        0x1aa6 ; _Z_GetHexHeader + 50
        0x00001a92:    f7ffffc7    ....    BL       _Z_GetHex ; 0x1a24
        0x00001a96:    0007        ..      MOVS     r7,r0
        0x00001a98:    d41b        ..      BMI      0x1ad2 ; _Z_GetHexHeader + 94
        0x00001a9a:    4641        AF      MOV      r1,r8
        0x00001a9c:    f7ffff78    ..x.    BL       Z_UpdateCRC ; 0x1990
        0x00001aa0:    4680        .F      MOV      r8,r0
        0x00001aa2:    f8047b01    ...{    STRB     r7,[r4],#1
        0x00001aa6:    1e6d        m.      SUBS     r5,r5,#1
        0x00001aa8:    d5f3        ..      BPL      0x1a92 ; _Z_GetHexHeader + 30
        0x00001aaa:    f7ffffbb    ....    BL       _Z_GetHex ; 0x1a24
        0x00001aae:    2800        .(      CMP      r0,#0
        0x00001ab0:    db0f        ..      BLT      0x1ad2 ; _Z_GetHexHeader + 94
        0x00001ab2:    4641        AF      MOV      r1,r8
        0x00001ab4:    f7ffff6c    ..l.    BL       Z_UpdateCRC ; 0x1990
        0x00001ab8:    4604        .F      MOV      r4,r0
        0x00001aba:    f7ffffb3    ....    BL       _Z_GetHex ; 0x1a24
        0x00001abe:    2800        .(      CMP      r0,#0
        0x00001ac0:    db07        ..      BLT      0x1ad2 ; _Z_GetHexHeader + 94
        0x00001ac2:    4621        !F      MOV      r1,r4
        0x00001ac4:    f7ffff64    ..d.    BL       Z_UpdateCRC ; 0x1990
        0x00001ac8:    0400        ..      LSLS     r0,r0,#16
        0x00001aca:    0c00        ..      LSRS     r0,r0,#16
        0x00001acc:    d003        ..      BEQ      0x1ad6 ; _Z_GetHexHeader + 98
        0x00001ace:    f04f30ff    O..0    MOV      r0,#0xffffffff
        0x00001ad2:    e8bd81f0    ....    POP      {r4-r8,pc}
        0x00001ad6:    f44f747a    O.zt    MOV      r4,#0x3e8
        0x00001ada:    4620         F      MOV      r0,r4
        0x00001adc:    f000f8f8    ....    BL       readline ; 0x1cd0
        0x00001ae0:    7831        1x      LDRB     r1,[r6,#0]
        0x00001ae2:    b921        !.      CBNZ     r1,0x1aee ; _Z_GetHexHeader + 122
        0x00001ae4:    280d        .(      CMP      r0,#0xd
        0x00001ae6:    d102        ..      BNE      0x1aee ; _Z_GetHexHeader + 122
        0x00001ae8:    4620         F      MOV      r0,r4
        0x00001aea:    f000f8f1    ....    BL       readline ; 0x1cd0
        0x00001aee:    6930        0i      LDR      r0,[r6,#0x10]
        0x00001af0:    e7ef        ..      B        0x1ad2 ; _Z_GetHexHeader + 94
    $d
        0x00001af2:    0000        ..      DCW    0
        0x00001af4:    20000034    4..     DCD    536870964
    $t
    i._Z_PullLongFromHeader
    _Z_PullLongFromHeader
        0x00001af8:    78c1        .x      LDRB     r1,[r0,#3]
        0x00001afa:    7882        .x      LDRB     r2,[r0,#2]
        0x00001afc:    ea422101    B..!    ORR      r1,r2,r1,LSL #8
        0x00001b00:    7842        Bx      LDRB     r2,[r0,#1]
        0x00001b02:    7800        .x      LDRB     r0,[r0,#0]
        0x00001b04:    ea422101    B..!    ORR      r1,r2,r1,LSL #8
        0x00001b08:    ea402001    @..     ORR      r0,r0,r1,LSL #8
        0x00001b0c:    4770        pG      BX       lr
        0x00001b0e:    0000        ..      MOVS     r0,r0
    i._Z_TimedRead
    _Z_TimedRead
        0x00001b10:    b570        p.      PUSH     {r4-r6,lr}
        0x00001b12:    4c08        .L      LDR      r4,[pc,#32] ; [0x1b34] = 0x20000034
        0x00001b14:    f2475530    G.0U    MOV      r5,#0x7530
        0x00001b18:    4628        (F      MOV      r0,r5
        0x00001b1a:    f000f8d9    ....    BL       readline ; 0x1cd0
        0x00001b1e:    7821        !x      LDRB     r1,[r4,#0]
        0x00001b20:    b2c0        ..      UXTB     r0,r0
        0x00001b22:    2900        .)      CMP      r1,#0
        0x00001b24:    d105        ..      BNE      0x1b32 ; _Z_TimedRead + 34
        0x00001b26:    f000017f    ....    AND      r1,r0,#0x7f
        0x00001b2a:    2911        .)      CMP      r1,#0x11
        0x00001b2c:    d0f4        ..      BEQ      0x1b18 ; _Z_TimedRead + 8
        0x00001b2e:    2913        .)      CMP      r1,#0x13
        0x00001b30:    d0f2        ..      BEQ      0x1b18 ; _Z_TimedRead + 8
        0x00001b32:    bd70        p.      POP      {r4-r6,pc}
    $d
        0x00001b34:    20000034    4..     DCD    536870964
    $t
    i._is_digit
    _is_digit
        0x00001b38:    3830        08      SUBS     r0,r0,#0x30
        0x00001b3a:    280a        .(      CMP      r0,#0xa
        0x00001b3c:    d201        ..      BCS      0x1b42 ; _is_digit + 10
        0x00001b3e:    2001        .       MOVS     r0,#1
        0x00001b40:    4770        pG      BX       lr
        0x00001b42:    2000        .       MOVS     r0,#0
        0x00001b44:    4770        pG      BX       lr
        0x00001b46:    0000        ..      MOVS     r0,r0
    i._sys_exit
    _sys_exit
        0x00001b48:    2200        ."      MOVS     r2,#0
        0x00001b4a:    4905        .I      LDR      r1,[pc,#20] ; [0x1b60] = 0x20026
        0x00001b4c:    2018        .       MOVS     r0,#0x18
        0x00001b4e:    f7fefb6b    ..k.    BL       SH_DoCommand ; 0x228
        0x00001b52:    e001        ..      B        0x1b58 ; _sys_exit + 16
        0x00001b54:    f7feffac    ....    BL       IsDebugFifoEmpty ; 0xab0
        0x00001b58:    2800        .(      CMP      r0,#0
        0x00001b5a:    d0fb        ..      BEQ      0x1b54 ; _sys_exit + 12
        0x00001b5c:    e7fe        ..      B        0x1b5c ; _sys_exit + 20
    $d
        0x00001b5e:    0000        ..      DCW    0
        0x00001b60:    00020026    &...    DCD    131110
    $t
    i.ferror
    ferror
        0x00001b64:    f04f30ff    O..0    MOV      r0,#0xffffffff
        0x00001b68:    4770        pG      BX       lr
    i.fputc
    fputc
        0x00001b6a:    b510        ..      PUSH     {r4,lr}
        0x00001b6c:    4604        .F      MOV      r4,r0
        0x00001b6e:    f7fff9a7    ....    BL       SendChar ; 0xec0
        0x00001b72:    4620         F      MOV      r0,r4
        0x00001b74:    bd10        ..      POP      {r4,pc}
        0x00001b76:    0000        ..      MOVS     r0,r0
    i.get_Zmodem
    get_Zmodem
        0x00001b78:    b570        p.      PUSH     {r4-r6,lr}
        0x00001b7a:    4c17        .L      LDR      r4,[pc,#92] ; [0x1bd8] = 0x20000034
        0x00001b7c:    4605        .F      MOV      r5,r0
        0x00001b7e:    2001        .       MOVS     r0,#1
        0x00001b80:    60e5        .`      STR      r5,[r4,#0xc]
        0x00001b82:    61a0        .a      STR      r0,[r4,#0x18]
        0x00001b84:    f7feffc6    ....    BL       RZ_InitReceiver ; 0xb14
        0x00001b88:    280f        .(      CMP      r0,#0xf
        0x00001b8a:    d00c        ..      BEQ      0x1ba6 ; get_Zmodem + 46
        0x00001b8c:    2804        .(      CMP      r0,#4
        0x00001b8e:    d103        ..      BNE      0x1b98 ; get_Zmodem + 32
        0x00001b90:    4628        (F      MOV      r0,r5
        0x00001b92:    f7fff83f    ..?.    BL       RZ_ReceiveBatch ; 0xc14
        0x00001b96:    b130        0.      CBZ      r0,0x1ba6 ; get_Zmodem + 46
        0x00001b98:    a010        ..      ADR      r0,{pc}+0x44 ; 0x1bdc
        0x00001b9a:    f7fefb89    ....    BL       __2printf ; 0x2b0
        0x00001b9e:    f7fffdbf    ....    BL       Z_ClearByte ; 0x1720
        0x00001ba2:    2000        .       MOVS     r0,#0
        0x00001ba4:    bd70        p.      POP      {r4-r6,pc}
        0x00001ba6:    6ae0        .j      LDR      r0,[r4,#0x2c]
        0x00001ba8:    0e00        ..      LSRS     r0,r0,#24
        0x00001baa:    f000f92f    ../.    BL       zmputchar ; 0x1e0c
        0x00001bae:    6ae0        .j      LDR      r0,[r4,#0x2c]
        0x00001bb0:    f3c04007    ...@    UBFX     r0,r0,#16,#8
        0x00001bb4:    f000f92a    ..*.    BL       zmputchar ; 0x1e0c
        0x00001bb8:    8da0        ..      LDRH     r0,[r4,#0x2c]
        0x00001bba:    f3c02007    ...     UBFX     r0,r0,#8,#8
        0x00001bbe:    f000f925    ..%.    BL       zmputchar ; 0x1e0c
        0x00001bc2:    f894002c    ..,.    LDRB     r0,[r4,#0x2c]
        0x00001bc6:    f000f921    ..!.    BL       zmputchar ; 0x1e0c
        0x00001bca:    a009        ..      ADR      r0,{pc}+0x26 ; 0x1bf0
        0x00001bcc:    f7fefb70    ..p.    BL       __2printf ; 0x2b0
        0x00001bd0:    f7fffda6    ....    BL       Z_ClearByte ; 0x1720
        0x00001bd4:    6ae0        .j      LDR      r0,[r4,#0x2c]
        0x00001bd6:    bd70        p.      POP      {r4-r6,pc}
    $d
        0x00001bd8:    20000034    4..     DCD    536870964
        0x00001bdc:    6e776f44    Down    DCD    1853321028
        0x00001be0:    64616f6c    load    DCD    1684107116
        0x00001be4:    72726520     err    DCD    1920099616
        0x00001be8:    2121726f    or!!    DCD    555840111
        0x00001bec:    000a0d21    !...    DCD    658721
        0x00001bf0:    65747962    byte    DCD    1702132066
        0x00001bf4:    65722073    s re    DCD    1701978227
        0x00001bf8:    76696563    ceiv    DCD    1986618723
        0x00001bfc:    21216465    ed!!    DCD    555836517
        0x00001c00:    000a0d21    !...    DCD    658721
    $t
    i.main
    main
        0x00001c04:    b53e        >.      PUSH     {r1-r5,lr}
        0x00001c06:    f7fff8fd    ....    BL       SYS_Init ; 0xe04
        0x00001c0a:    f7fffa8b    ....    BL       UART0_Init ; 0x1124
        0x00001c0e:    f7fffa6f    ..o.    BL       Timer0_Init ; 0x10f0
        0x00001c12:    f7fff945    ..E.    BL       SYS_UnlockReg ; 0xea0
        0x00001c16:    f7feff0d    ....    BL       FMC_Open ; 0xa34
        0x00001c1a:    2102        .!      MOVS     r1,#2
        0x00001c1c:    a801        ..      ADD      r0,sp,#4
        0x00001c1e:    f7feff1f    ....    BL       FMC_ReadConfig ; 0xa60
        0x00001c22:    4c10        .L      LDR      r4,[pc,#64] ; [0x1c64] = 0x40070000
        0x00001c24:    a010        ..      ADR      r0,{pc}+0x44 ; 0x1c68
        0x00001c26:    f7fefb43    ..C.    BL       __2printf ; 0x2b0
        0x00001c2a:    a018        ..      ADR      r0,{pc}+0x62 ; 0x1c8c
        0x00001c2c:    f7fefb40    ..@.    BL       __2printf ; 0x2b0
        0x00001c30:    2201        ."      MOVS     r2,#1
        0x00001c32:    4669        iF      MOV      r1,sp
        0x00001c34:    4620         F      MOV      r0,r4
        0x00001c36:    f7fffac7    ....    BL       UART_Read ; 0x11c8
        0x00001c3a:    f89d1000    ....    LDRB     r1,[sp,#0]
        0x00001c3e:    2931        1)      CMP      r1,#0x31
        0x00001c40:    d002        ..      BEQ      0x1c48 ; main + 68
        0x00001c42:    2932        2)      CMP      r1,#0x32
        0x00001c44:    d1ee        ..      BNE      0x1c24 ; main + 32
        0x00001c46:    e007        ..      B        0x1c58 ; main + 84
        0x00001c48:    210b        .!      MOVS     r1,#0xb
        0x00001c4a:    a01d        ..      ADR      r0,{pc}+0x76 ; 0x1cc0
        0x00001c4c:    f000f86a    ..j.    BL       send_Zmodem ; 0x1d24
        0x00001c50:    f89d0000    ....    LDRB     r0,[sp,#0]
        0x00001c54:    2832        2(      CMP      r0,#0x32
        0x00001c56:    d102        ..      BNE      0x1c5e ; main + 90
        0x00001c58:    481c        .H      LDR      r0,[pc,#112] ; [0x1ccc] = 0x20000090
        0x00001c5a:    f7ffff8d    ....    BL       get_Zmodem ; 0x1b78
        0x00001c5e:    2000        .       MOVS     r0,#0
        0x00001c60:    bd3e        >.      POP      {r1-r5,pc}
    $d
        0x00001c62:    0000        ..      DCW    0
        0x00001c64:    40070000    ...@    DCD    1074200576
        0x00001c68:    caebc70a    ....    DCD    3404449546
        0x00001c6c:    68c3d3b9    ...h    DCD    1757664185
        0x00001c70:    72657079    yper    DCD    1919250553
        0x00001c74:    bd6d7274    trm.    DCD    3178066548
        0x00001c78:    ced0d0f8    ....    DCD    3469791480
        0x00001c7c:    bdfebcc4    ....    DCD    3187588292
        0x00001c80:    bbd5cad3    ....    DCD    3151350483
        0x00001c84:    cba2b7f2    ....    DCD    3416438770
        0x00001c88:    00000acd    ....    DCD    2765
        0x00001c8c:    d1ebc70a    ....    DCD    3521890058
        0x00001c90:    b9f1d4a1    ....    DCD    3119633569
        0x00001c94:    0adcc4a6    ....    DCD    182240422
        0x00001c98:    bdbaa331    1...    DCD    3183125297
        0x00001c9c:    ced5cad3    ....    DCD    3470117587
        0x00001ca0:    a3febcc4    ....    DCD    2751380676
        0x00001ca4:    736574a8    .tes    DCD    1936028840
        0x00001ca8:    78742e74    t.tx    DCD    2020879988
        0x00001cac:    0aa9a374    t...    DCD    178889588
        0x00001cb0:    b7203a32    2: .    DCD    3072342578
        0x00001cb4:    cecdcba2    ....    DCD    3469593506
        0x00001cb8:    0afebcc4    ....    DCD    184466628
        0x00001cbc:    00000000    ....    DCD    0
        0x00001cc0:    74736574    test    DCD    1953719668
        0x00001cc4:    7478742e    .txt    DCD    1954051118
        0x00001cc8:    00000000    ....    DCD    0
        0x00001ccc:    20000090    ...     DCD    536871056
    $t
    i.readline
    readline
        0x00001cd0:    e92d43f8    -..C    PUSH     {r3-r9,lr}
        0x00001cd4:    f8df9044    ..D.    LDR      r9,[pc,#68] ; [0x1d1c] = 0x40070000
        0x00001cd8:    4f11        .O      LDR      r7,[pc,#68] ; [0x1d20] = 0x20000004
        0x00001cda:    4604        .F      MOV      r4,r0
        0x00001cdc:    f04f0805    O...    MOV      r8,#5
        0x00001ce0:    2600        .&      MOVS     r6,#0
        0x00001ce2:    f04f25e0    O..%    MOV      r5,#0xe000e000
        0x00001ce6:    2201        ."      MOVS     r2,#1
        0x00001ce8:    4669        iF      MOV      r1,sp
        0x00001cea:    4648        HF      MOV      r0,r9
        0x00001cec:    f7fffa6c    ..l.    BL       UART_Read ; 0x11c8
        0x00001cf0:    b118        ..      CBZ      r0,0x1cfa ; readline + 42
        0x00001cf2:    f89d0000    ....    LDRB     r0,[sp,#0]
        0x00001cf6:    e8bd83f8    ....    POP      {r3-r9,pc}
        0x00001cfa:    6838        8h      LDR      r0,[r7,#0]
        0x00001cfc:    eb000080    ....    ADD      r0,r0,r0,LSL #2
        0x00001d00:    0040        @.      LSLS     r0,r0,#1
        0x00001d02:    6168        ha      STR      r0,[r5,#0x14]
        0x00001d04:    61ae        .a      STR      r6,[r5,#0x18]
        0x00001d06:    f8c58010    ....    STR      r8,[r5,#0x10]
        0x00001d0a:    6928        (i      LDR      r0,[r5,#0x10]
        0x00001d0c:    03c0        ..      LSLS     r0,r0,#15
        0x00001d0e:    d5fc        ..      BPL      0x1d0a ; readline + 58
        0x00001d10:    612e        .a      STR      r6,[r5,#0x10]
        0x00001d12:    1e64        d.      SUBS     r4,r4,#1
        0x00001d14:    d1e7        ..      BNE      0x1ce6 ; readline + 22
        0x00001d16:    1ea0        ..      SUBS     r0,r4,#2
        0x00001d18:    e7ed        ..      B        0x1cf6 ; readline + 38
    $d
        0x00001d1a:    0000        ..      DCW    0
        0x00001d1c:    40070000    ...@    DCD    1074200576
        0x00001d20:    20000004    ...     DCD    536870916
    $t
    i.send_Zmodem
    send_Zmodem
        0x00001d24:    b570        p.      PUSH     {r4-r6,lr}
        0x00001d26:    460c        .F      MOV      r4,r1
        0x00001d28:    4605        .F      MOV      r5,r0
        0x00001d2a:    f7fffcf9    ....    BL       Z_ClearByte ; 0x1720
        0x00001d2e:    2000        .       MOVS     r0,#0
        0x00001d30:    f7fffdb6    ....    BL       Z_PutLongIntoHeader ; 0x18a0
        0x00001d34:    490a        .I      LDR      r1,[pc,#40] ; [0x1d60] = 0x20000058
        0x00001d36:    2000        .       MOVS     r0,#0
        0x00001d38:    f7fffdbe    ....    BL       Z_SendHexHeader ; 0x18b8
        0x00001d3c:    f7fffa92    ....    BL       ZS_GetReceiverInfo ; 0x1264
        0x00001d40:    1c40        @.      ADDS     r0,r0,#1
        0x00001d42:    d008        ..      BEQ      0x1d56 ; send_Zmodem + 50
        0x00001d44:    4621        !F      MOV      r1,r4
        0x00001d46:    4628        (F      MOV      r0,r5
        0x00001d48:    f7fffb60    ..`.    BL       ZS_SendFile ; 0x140c
        0x00001d4c:    1c40        @.      ADDS     r0,r0,#1
        0x00001d4e:    d003        ..      BEQ      0x1d58 ; send_Zmodem + 52
        0x00001d50:    f7fffa66    ..f.    BL       ZS_EndSend ; 0x1220
        0x00001d54:    4620         F      MOV      r0,r4
        0x00001d56:    bd70        p.      POP      {r4-r6,pc}
        0x00001d58:    f7fffa62    ..b.    BL       ZS_EndSend ; 0x1220
        0x00001d5c:    2000        .       MOVS     r0,#0
        0x00001d5e:    bd70        p.      POP      {r4-r6,pc}
    $d
        0x00001d60:    20000058    X..     DCD    536871000
    $t
    i.stackDump
    stackDump
        0x00001d64:    b510        ..      PUSH     {r4,lr}
        0x00001d66:    4604        .F      MOV      r4,r0
        0x00001d68:    6801        .h      LDR      r1,[r0,#0]
        0x00001d6a:    a010        ..      ADR      r0,{pc}+0x42 ; 0x1dac
        0x00001d6c:    f7fefaa0    ....    BL       __2printf ; 0x2b0
        0x00001d70:    a011        ..      ADR      r0,{pc}+0x48 ; 0x1db8
        0x00001d72:    6861        ah      LDR      r1,[r4,#4]
        0x00001d74:    f7fefa9c    ....    BL       __2printf ; 0x2b0
        0x00001d78:    a012        ..      ADR      r0,{pc}+0x4c ; 0x1dc4
        0x00001d7a:    68a1        .h      LDR      r1,[r4,#8]
        0x00001d7c:    f7fefa98    ....    BL       __2printf ; 0x2b0
        0x00001d80:    a013        ..      ADR      r0,{pc}+0x50 ; 0x1dd0
        0x00001d82:    68e1        .h      LDR      r1,[r4,#0xc]
        0x00001d84:    f7fefa94    ....    BL       __2printf ; 0x2b0
        0x00001d88:    a014        ..      ADR      r0,{pc}+0x54 ; 0x1ddc
        0x00001d8a:    6921        !i      LDR      r1,[r4,#0x10]
        0x00001d8c:    f7fefa90    ....    BL       __2printf ; 0x2b0
        0x00001d90:    a015        ..      ADR      r0,{pc}+0x58 ; 0x1de8
        0x00001d92:    6961        ai      LDR      r1,[r4,#0x14]
        0x00001d94:    f7fefa8c    ....    BL       __2printf ; 0x2b0
        0x00001d98:    a016        ..      ADR      r0,{pc}+0x5c ; 0x1df4
        0x00001d9a:    69a1        .i      LDR      r1,[r4,#0x18]
        0x00001d9c:    f7fefa88    ....    BL       __2printf ; 0x2b0
        0x00001da0:    69e1        .i      LDR      r1,[r4,#0x1c]
        0x00001da2:    e8bd4010    ...@    POP      {r4,lr}
        0x00001da6:    a016        ..      ADR      r0,{pc}+0x5a ; 0x1e00
        0x00001da8:    f7feba82    ....    B        __2printf ; 0x2b0
    $d
        0x00001dac:    20203072    r0      DCD    538980466
        0x00001db0:    7830203d    = 0x    DCD    2016419901
        0x00001db4:    000a7825    %x..    DCD    686117
        0x00001db8:    20203172    r1      DCD    538980722
        0x00001dbc:    7830203d    = 0x    DCD    2016419901
        0x00001dc0:    000a7825    %x..    DCD    686117
        0x00001dc4:    20203272    r2      DCD    538980978
        0x00001dc8:    7830203d    = 0x    DCD    2016419901
        0x00001dcc:    000a7825    %x..    DCD    686117
        0x00001dd0:    20203372    r3      DCD    538981234
        0x00001dd4:    7830203d    = 0x    DCD    2016419901
        0x00001dd8:    000a7825    %x..    DCD    686117
        0x00001ddc:    20323172    r12     DCD    540160370
        0x00001de0:    7830203d    = 0x    DCD    2016419901
        0x00001de4:    000a7825    %x..    DCD    686117
        0x00001de8:    2020726c    lr      DCD    538997356
        0x00001dec:    7830203d    = 0x    DCD    2016419901
        0x00001df0:    000a7825    %x..    DCD    686117
        0x00001df4:    20206370    pc      DCD    538993520
        0x00001df8:    7830203d    = 0x    DCD    2016419901
        0x00001dfc:    000a7825    %x..    DCD    686117
        0x00001e00:    20727370    psr     DCD    544371568
        0x00001e04:    7830203d    = 0x    DCD    2016419901
        0x00001e08:    000a7825    %x..    DCD    686117
    $t
    i.zmputchar
    zmputchar
        0x00001e0c:    b508        ..      PUSH     {r3,lr}
        0x00001e0e:    2201        ."      MOVS     r2,#1
        0x00001e10:    f88d0000    ....    STRB     r0,[sp,#0]
        0x00001e14:    4669        iF      MOV      r1,sp
        0x00001e16:    4802        .H      LDR      r0,[pc,#8] ; [0x1e20] = 0x40070000
        0x00001e18:    f7fff9ec    ....    BL       UART_Write ; 0x11f4
        0x00001e1c:    bd08        ..      POP      {r3,pc}
    $d
        0x00001e1e:    0000        ..      DCW    0
        0x00001e20:    40070000    ...@    DCD    1074200576
    $t
    x$fpl$fpinit
    $v0
    _fp_init
        0x00001e24:    f04f7040    O.@p    MOV      r0,#0x3000000
        0x00001e28:    eee10a10    ....    VMSR     FPSCR,r0
    __fplib_config_fpu_vfp
    __fplib_config_pureend_doubles
        0x00001e2c:    4770        pG      BX       lr
        0x00001e2e:    0000        ..      MOVS     r0,r0
    $d.realdata
    .constdata
        0x00001e30:    00b71b00    ....    DCD    12000000
        0x00001e34:    00008000    ....    DCD    32768
        0x00001e38:    00000000    ....    DCD    0
        0x00001e3c:    00000000    ....    DCD    0
        0x00001e40:    00000000    ....    DCD    0
        0x00001e44:    00002710    .'..    DCD    10000
        0x00001e48:    00000000    ....    DCD    0
        0x00001e4c:    01518000    ..Q.    DCD    22118400
    .constdata
        0x00001e50:    00b71b00    ....    DCD    12000000
        0x00001e54:    00000000    ....    DCD    0
        0x00001e58:    00008000    ....    DCD    32768
        0x00001e5c:    01518000    ..Q.    DCD    22118400
        0x00001e60:    00b71b00    ....    DCD    12000000
        0x00001e64:    00000000    ....    DCD    0
        0x00001e68:    00008000    ....    DCD    32768
        0x00001e6c:    01518000    ..Q.    DCD    22118400
        0x00001e70:    00b71b00    ....    DCD    12000000
        0x00001e74:    00000000    ....    DCD    0
        0x00001e78:    00008000    ....    DCD    32768
        0x00001e7c:    01518000    ..Q.    DCD    22118400
    .constdata
    uc_hextab
        0x00001e80:    33323130    0123    DCD    858927408
        0x00001e84:    37363534    4567    DCD    926299444
        0x00001e88:    42413938    89AB    DCD    1111570744
        0x00001e8c:    46454443    CDEF    DCD    1178944579
        0x00001e90:    00583040    @0X.    DCD    5779520
    lc_hextab
        0x00001e94:    33323130    0123    DCD    858927408
        0x00001e98:    37363534    4567    DCD    926299444
        0x00001e9c:    62613938    89ab    DCD    1650538808
        0x00001ea0:    66656463    cdef    DCD    1717920867
        0x00001ea4:    00783040    @0x.    DCD    7876672
    Region$$Table$$Base
        0x00001ea8:    00001ec8    ....    DCD    7880
        0x00001eac:    20000000    ...     DCD    536870912
        0x00001eb0:    00000080    ....    DCD    128
        0x00001eb4:    0000017c    |...    DCD    380
        0x00001eb8:    00001f48    H...    DCD    8008
        0x00001ebc:    20000080    ...     DCD    536871040
        0x00001ec0:    00000cf8    ....    DCD    3320
        0x00001ec4:    00000198    ....    DCD    408
    Region$$Table$$Limit

** Section #2 'ER_RW' (SHT_PROGBITS) [SHF_ALLOC + SHF_WRITE]
    Size   : 128 bytes (alignment 4)
    Address: 0x20000000


** Section #3 'ER_ZI' (SHT_NOBITS) [SHF_ALLOC + SHF_WRITE]
    Size   : 3320 bytes (alignment 8)
    Address: 0x20000080


** Section #4 '.debug_abbrev' (SHT_PROGBITS)
    Size   : 1476 bytes


** Section #5 '.debug_frame' (SHT_PROGBITS)
    Size   : 3500 bytes


** Section #6 '.debug_info' (SHT_PROGBITS)
    Size   : 61800 bytes


** Section #7 '.debug_line' (SHT_PROGBITS)
    Size   : 14840 bytes


** Section #8 '.debug_loc' (SHT_PROGBITS)
    Size   : 2896 bytes


** Section #9 '.debug_macinfo' (SHT_PROGBITS)
    Size   : 691792 bytes


** Section #10 '.debug_pubnames' (SHT_PROGBITS)
    Size   : 2740 bytes


** Section #11 '.symtab' (SHT_SYMTAB)
    Size   : 10112 bytes (alignment 4)
    String table #12 '.strtab'
    Last local symbol no. 388


** Section #12 '.strtab' (SHT_STRTAB)
    Size   : 8356 bytes


** Section #13 '.note' (SHT_NOTE)
    Size   : 28 bytes (alignment 4)


** Section #14 '.comment' (SHT_PROGBITS)
    Size   : 15452 bytes


** Section #15 '.shstrtab' (SHT_STRTAB)
    Size   : 156 bytes


